Archive member included to satisfy reference by file (symbol)

platform/libplatform_s.a(system_nrf5340_application.o)
                              secure_fw/CMakeFiles/tfm_s.dir/__/platform/ext/target/nordic_nrf/common/core/startup.o (SystemInit)
secure_fw/partitions/lib/runtime/libtfm_sprt.a(crt_memset.o)
                              /home/jordan/ncs/toolchains/7795df4459/opt/zephyr-sdk/arm-zephyr-eabi/bin/../lib/gcc/arm-zephyr-eabi/12.2.0/../../../../arm-zephyr-eabi/lib/thumb/v8-m.main/nofp/crt0.o (memset)
secure_fw/partitions/lib/runtime/libtfm_sprt.a(psa_api_ipc.o)
                              secure_fw/CMakeFiles/tfm_s.dir/partitions/ns_agent_tz/psa_api_veneers_v80m.o (psa_framework_version)
secure_fw/partitions/lib/runtime/libtfm_sprt.a(sprt_partition_metadata_indicator.o)
                              secure_fw/partitions/lib/runtime/libtfm_sprt.a(psa_api_ipc.o) (p_partition_metadata)
secure_fw/spm/libtfm_spm.a(utilities.o)
                              secure_fw/CMakeFiles/tfm_s.dir/__/platform/ext/target/nordic_nrf/common/core/startup.o (tfm_core_panic)
secure_fw/spm/libtfm_spm.a(main.o)
                              /home/jordan/ncs/toolchains/7795df4459/opt/zephyr-sdk/arm-zephyr-eabi/bin/../lib/gcc/arm-zephyr-eabi/12.2.0/../../../../arm-zephyr-eabi/lib/thumb/v8-m.main/nofp/crt0.o (main)
secure_fw/spm/libtfm_spm.a(tfm_core_svcalls_ipc.o)
                              secure_fw/spm/libtfm_spm.a(main.o) (tfm_core_handler_mode)
secure_fw/spm/libtfm_spm.a(tfm_arch_v8m_main.o)
                              secure_fw/spm/libtfm_spm.a(main.o) (tfm_arch_set_secure_exception_priorities)
secure_fw/spm/libtfm_spm.a(ns_agent_tz_v80m.o)
                              secure_fw/CMakeFiles/tfm_s.dir/partitions/ns_agent_tz/load_info_ns_agent_tz.o (ns_agent_tz_main)
secure_fw/spm/libtfm_spm.a(tfm_hal_isolation.o)
                              secure_fw/spm/libtfm_spm.a(main.o) (tfm_hal_set_up_static_boundaries)
secure_fw/spm/libtfm_spm.a(faults.o)
                              secure_fw/CMakeFiles/tfm_s.dir/__/platform/ext/target/nordic_nrf/common/core/startup_nrf5340.o (SPU_IRQHandler)
secure_fw/spm/libtfm_spm.a(target_cfg.o)
                              secure_fw/spm/libtfm_spm.a(tfm_hal_isolation.o) (sau_and_idau_cfg)
secure_fw/spm/libtfm_spm.a(tfm_boot_data.o)
                              secure_fw/spm/libtfm_spm.a(main.o) (tfm_core_validate_boot_data)
secure_fw/spm/libtfm_spm.a(tfm_arch.o)
                              secure_fw/spm/libtfm_spm.a(tfm_core_svcalls_ipc.o) (tfm_arch_free_msp_and_exc_ret)
secure_fw/spm/libtfm_spm.a(spm_ipc.o)
                              secure_fw/spm/libtfm_spm.a(tfm_boot_data.o) (tfm_spm_partition_get_running_partition_id)
secure_fw/spm/libtfm_spm.a(spm_cross_call.o)
                              secure_fw/spm/libtfm_spm.a(tfm_arch_v8m_main.o) (cross_call_entering_c)
secure_fw/spm/libtfm_spm.a(rom_loader.o)
                              secure_fw/spm/libtfm_spm.a(spm_ipc.o) (load_a_partition_assuredly)
secure_fw/spm/libtfm_spm.a(psa_api.o)
                              secure_fw/spm/libtfm_spm.a(tfm_core_svcalls_ipc.o) (spm_handle_programmer_errors)
secure_fw/spm/libtfm_spm.a(backend_ipc.o)
                              secure_fw/spm/libtfm_spm.a(spm_ipc.o) (backend_init_comp_assuredly)
secure_fw/spm/libtfm_spm.a(tfm_pools.o)
                              secure_fw/spm/libtfm_spm.a(spm_ipc.o) (tfm_pool_init)
secure_fw/spm/libtfm_spm.a(thread.o)
                              secure_fw/spm/libtfm_spm.a(backend_ipc.o) (thrd_set_query_callback)
secure_fw/spm/libtfm_spm.a(tfm_spm_ns_ctx.o)
                              secure_fw/spm/libtfm_spm.a(spm_ipc.o) (tfm_nspm_get_current_client_id)
secure_fw/spm/libtfm_spm.a(tfm_hal_platform_common.o)
                              secure_fw/spm/libtfm_spm.a(tfm_spm_ns_ctx.o) (tfm_hal_get_ns_VTOR)
secure_fw/partitions/crypto/libtfm_psa_rot_partition_crypto.a(crypto_init.o)
                              secure_fw/CMakeFiles/tfm_s.dir/__/generated/secure_fw/partitions/crypto/auto_generated/load_info_tfm_crypto.o (tfm_crypto_init)
secure_fw/partitions/crypto/libtfm_psa_rot_partition_crypto.a(crypto_alloc.o)
                              secure_fw/partitions/crypto/libtfm_psa_rot_partition_crypto.a(crypto_init.o) (tfm_crypto_init_alloc)
secure_fw/partitions/crypto/libtfm_psa_rot_partition_crypto.a(crypto_cipher.o)
                              secure_fw/partitions/crypto/libtfm_psa_rot_partition_crypto.a(crypto_init.o) (tfm_crypto_cipher_interface)
secure_fw/partitions/crypto/libtfm_psa_rot_partition_crypto.a(crypto_hash.o)
                              secure_fw/partitions/crypto/libtfm_psa_rot_partition_crypto.a(crypto_init.o) (tfm_crypto_hash_interface)
secure_fw/partitions/crypto/libtfm_psa_rot_partition_crypto.a(crypto_mac.o)
                              secure_fw/partitions/crypto/libtfm_psa_rot_partition_crypto.a(crypto_init.o) (tfm_crypto_mac_interface)
secure_fw/partitions/crypto/libtfm_psa_rot_partition_crypto.a(crypto_aead.o)
                              secure_fw/partitions/crypto/libtfm_psa_rot_partition_crypto.a(crypto_init.o) (tfm_crypto_aead_interface)
secure_fw/partitions/crypto/libtfm_psa_rot_partition_crypto.a(crypto_asymmetric.o)
                              secure_fw/partitions/crypto/libtfm_psa_rot_partition_crypto.a(crypto_init.o) (tfm_crypto_asymmetric_sign_interface)
secure_fw/partitions/crypto/libtfm_psa_rot_partition_crypto.a(crypto_key_derivation.o)
                              secure_fw/partitions/crypto/libtfm_psa_rot_partition_crypto.a(crypto_init.o) (tfm_crypto_key_derivation_interface)
secure_fw/partitions/crypto/libtfm_psa_rot_partition_crypto.a(crypto_key_management.o)
                              secure_fw/partitions/crypto/libtfm_psa_rot_partition_crypto.a(crypto_init.o) (tfm_crypto_key_management_interface)
secure_fw/partitions/crypto/libtfm_psa_rot_partition_crypto.a(crypto_rng.o)
                              secure_fw/partitions/crypto/libtfm_psa_rot_partition_crypto.a(crypto_init.o) (tfm_crypto_random_interface)
secure_fw/partitions/crypto/libtfm_psa_rot_partition_crypto.a(crypto_library.o)
                              secure_fw/partitions/crypto/libtfm_psa_rot_partition_crypto.a(crypto_init.o) (tfm_crypto_library_get_info)
secure_fw/partitions/crypto/libtfm_psa_rot_partition_crypto.a(intermedia_tfm_crypto.o)
                              secure_fw/CMakeFiles/tfm_s.dir/__/generated/secure_fw/partitions/crypto/auto_generated/load_info_tfm_crypto.o (tfm_sp_crypto_stack)
platform/libplatform_crypto_keys.a(crypto_keys.o)
                              secure_fw/partitions/crypto/libtfm_psa_rot_partition_crypto.a(crypto_library.o) (tfm_plat_builtin_key_get_desc_table_ptr)
secure_fw/partitions/crypto/mbedcrypto/nrf_security_src/libcrypto_service_mbedcrypto.a(memory_buffer_alloc.o)
                              secure_fw/partitions/crypto/libtfm_psa_rot_partition_crypto.a(crypto_library.o) (mbedtls_memory_buffer_alloc_init)
secure_fw/partitions/crypto/mbedcrypto/nrf_security_src/libcrypto_service_mbedcrypto.a(platform.o)
                              secure_fw/partitions/crypto/mbedcrypto/nrf_security_src/libcrypto_service_mbedcrypto.a(memory_buffer_alloc.o) (mbedtls_platform_set_calloc_free)
secure_fw/partitions/crypto/mbedcrypto/nrf_security_src/libcrypto_service_mbedcrypto.a(psa_crypto.o)
                              secure_fw/partitions/crypto/libtfm_psa_rot_partition_crypto.a(crypto_rng.o) (mbedcrypto__psa_generate_random)
secure_fw/partitions/crypto/mbedcrypto/nrf_security_src/libcrypto_service_mbedcrypto.a(psa_crypto_client.o)
                              secure_fw/partitions/crypto/mbedcrypto/nrf_security_src/libcrypto_service_mbedcrypto.a(psa_crypto.o) (mbedcrypto__psa_reset_key_attributes)
secure_fw/partitions/crypto/mbedcrypto/nrf_security_src/libcrypto_service_mbedcrypto.a(psa_crypto_slot_management.o)
                              secure_fw/partitions/crypto/mbedcrypto/nrf_security_src/libcrypto_service_mbedcrypto.a(psa_crypto.o) (psa_is_valid_key_id)
secure_fw/partitions/crypto/mbedcrypto/nrf_security_src/libcrypto_service_mbedcrypto.a(psa_crypto_driver_wrappers.o)
                              secure_fw/partitions/crypto/mbedcrypto/nrf_security_src/libcrypto_service_mbedcrypto.a(psa_crypto.o) (psa_driver_wrapper_init)
secure_fw/partitions/platform/libtfm_psa_rot_partition_platform.a(platform_sp.o)
                              secure_fw/CMakeFiles/tfm_s.dir/__/generated/secure_fw/partitions/platform/auto_generated/load_info_tfm_platform.o (tfm_platform_service_sfn)
secure_fw/partitions/platform/libtfm_psa_rot_partition_platform.a(intermedia_tfm_platform.o)
                              secure_fw/CMakeFiles/tfm_s.dir/__/generated/secure_fw/partitions/platform/auto_generated/load_info_tfm_platform.o (tfm_sp_platform_stack)
platform/libplatform_s.a(mpu_armv8m_drv.o)
                              secure_fw/spm/libtfm_spm.a(tfm_hal_isolation.o) (mpu_armv8m_enable)
platform/libplatform_s.a(spu.o)
                              secure_fw/spm/libtfm_spm.a(target_cfg.o) (spu_enable_interrupts)
platform/libplatform_s.a(tfm_hal_platform.o)
                              secure_fw/spm/libtfm_spm.a(main.o) (tfm_hal_platform_init)
platform/libplatform_s.a(dummy_otp.o)
                              secure_fw/spm/libtfm_spm.a(main.o) (tfm_plat_otp_init)
platform/libplatform_s.a(dummy_provisioning.o)
                              secure_fw/spm/libtfm_spm.a(main.o) (tfm_plat_provisioning_is_required)
platform/libplatform_s.a(tfm_platform_system.o)
                              secure_fw/partitions/platform/libtfm_psa_rot_partition_platform.a(platform_sp.o) (tfm_platform_hal_system_reset)
platform/libplatform_s.a(tfm_hal_reset_halt.o)
                              secure_fw/spm/libtfm_spm.a(utilities.o) (tfm_hal_system_reset)
platform/libplatform_s.a(tfm_platform_hal_ioctl.o)
                              platform/libplatform_s.a(tfm_platform_system.o) (tfm_platform_hal_read_service)
secure_fw/partitions/lib/runtime/libtfm_sprt.a(crt_memcpy.o)
                              secure_fw/spm/libtfm_spm.a(psa_api.o) (memcpy)
secure_fw/partitions/lib/runtime/libtfm_sprt.a(sfn_common_thread.o)
                              secure_fw/spm/libtfm_spm.a(backend_ipc.o) (common_sfn_thread)
secure_fw/partitions/lib/runtime/libtfm_sprt.a(psa_interface_cross.o)
                              secure_fw/spm/libtfm_spm.a(backend_ipc.o) (psa_api_cross)
secure_fw/partitions/lib/runtime/libtfm_sprt.a(dummy_tfm_sp_log_raw.o)
                              secure_fw/partitions/crypto/mbedcrypto/nrf_security_src/libcrypto_service_mbedcrypto.a(platform.o) (printf)
secure_fw/spm/libtfm_spm.a(psa_call_api.o)
                              secure_fw/partitions/lib/runtime/libtfm_sprt.a(psa_interface_cross.o) (tfm_spm_client_psa_call)
secure_fw/spm/libtfm_spm.a(psa_version_api.o)
                              secure_fw/partitions/lib/runtime/libtfm_sprt.a(psa_interface_cross.o) (tfm_spm_client_psa_framework_version)
secure_fw/spm/libtfm_spm.a(psa_read_write_skip_api.o)
                              secure_fw/partitions/lib/runtime/libtfm_sprt.a(psa_interface_cross.o) (tfm_spm_partition_psa_read)
secure_fw/partitions/crypto/libtfm_psa_rot_partition_crypto.a(tfm_builtin_key_loader.o)
                              secure_fw/partitions/crypto/mbedcrypto/nrf_security_src/libcrypto_service_mbedcrypto.a(psa_crypto_driver_wrappers.o) (tfm_builtin_key_loader_init)
/home/jordan/ncs/v2.5.1/nrfxlib/crypto/nrf_cc312_platform/lib/cortex-m33/soft-float/no-interrupts/libnrf_cc312_platform_0.9.18.a(nrf_cc3xx_platform.c.obj)
                              platform/libplatform_s.a(tfm_hal_platform.o) (nrf_cc3xx_platform_init)
/home/jordan/ncs/v2.5.1/nrfxlib/crypto/nrf_cc312_platform/lib/cortex-m33/soft-float/no-interrupts/libnrf_cc312_platform_0.9.18.a(nrf_cc3xx_platform_ctr_drbg.c.obj)
                              secure_fw/partitions/crypto/mbedcrypto/nrf_security_src/libcrypto_service_mbedcrypto.a(psa_crypto_driver_wrappers.o) (nrf_cc3xx_platform_ctr_drbg_get)
/home/jordan/ncs/v2.5.1/nrfxlib/crypto/nrf_cc312_platform/lib/cortex-m33/soft-float/no-interrupts/libnrf_cc312_platform_0.9.18.a(mbedtls_common.c.obj)
                              secure_fw/partitions/crypto/mbedcrypto/nrf_security_src/libcrypto_service_mbedcrypto.a(memory_buffer_alloc.o) (mbedtls_platform_zeroize)
/home/jordan/ncs/v2.5.1/nrfxlib/crypto/nrf_cc312_platform/lib/cortex-m33/soft-float/no-interrupts/libnrf_cc312_platform_0.9.18.a(ctr_drbg.c.obj)
                              /home/jordan/ncs/v2.5.1/nrfxlib/crypto/nrf_cc312_platform/lib/cortex-m33/soft-float/no-interrupts/libnrf_cc312_platform_0.9.18.a(nrf_cc3xx_platform_ctr_drbg.c.obj) (cc_mbedtls_ctr_drbg_init)
/home/jordan/ncs/v2.5.1/nrfxlib/crypto/nrf_cc312_platform/lib/cortex-m33/soft-float/no-interrupts/libnrf_cc312_platform_0.9.18.a(entropy.c.obj)
                              /home/jordan/ncs/v2.5.1/nrfxlib/crypto/nrf_cc312_platform/lib/cortex-m33/soft-float/no-interrupts/libnrf_cc312_platform_0.9.18.a(nrf_cc3xx_platform_ctr_drbg.c.obj) (cc_mbedtls_entropy_init)
/home/jordan/ncs/v2.5.1/nrfxlib/crypto/nrf_cc312_platform/lib/cortex-m33/soft-float/no-interrupts/libnrf_cc312_platform_0.9.18.a(cc_lib.c.obj)
                              /home/jordan/ncs/v2.5.1/nrfxlib/crypto/nrf_cc312_platform/lib/cortex-m33/soft-float/no-interrupts/libnrf_cc312_platform_0.9.18.a(nrf_cc3xx_platform.c.obj) (CC_LibInitNoRng)
/home/jordan/ncs/v2.5.1/nrfxlib/crypto/nrf_cc312_platform/lib/cortex-m33/soft-float/no-interrupts/libnrf_cc312_platform_0.9.18.a(cc_hal.c.obj)
                              /home/jordan/ncs/v2.5.1/nrfxlib/crypto/nrf_cc312_platform/lib/cortex-m33/soft-float/no-interrupts/libnrf_cc312_platform_0.9.18.a(cc_lib.c.obj) (CC_HalInit)
/home/jordan/ncs/v2.5.1/nrfxlib/crypto/nrf_cc312_platform/lib/cortex-m33/soft-float/no-interrupts/libnrf_cc312_platform_0.9.18.a(cc_pal.c.obj)
                              /home/jordan/ncs/v2.5.1/nrfxlib/crypto/nrf_cc312_platform/lib/cortex-m33/soft-float/no-interrupts/libnrf_cc312_platform_0.9.18.a(cc_lib.c.obj) (CC_PalInit)
/home/jordan/ncs/v2.5.1/nrfxlib/crypto/nrf_cc312_platform/lib/cortex-m33/soft-float/no-interrupts/libnrf_cc312_platform_0.9.18.a(cc_pal_dma.c.obj)
                              /home/jordan/ncs/v2.5.1/nrfxlib/crypto/nrf_cc312_platform/lib/cortex-m33/soft-float/no-interrupts/libnrf_cc312_platform_0.9.18.a(cc_pal.c.obj) (CC_PalDmaInit)
/home/jordan/ncs/v2.5.1/nrfxlib/crypto/nrf_cc312_platform/lib/cortex-m33/soft-float/no-interrupts/libnrf_cc312_platform_0.9.18.a(cc_pal_interrupt_ctrl.c.obj)
                              /home/jordan/ncs/v2.5.1/nrfxlib/crypto/nrf_cc312_platform/lib/cortex-m33/soft-float/no-interrupts/libnrf_cc312_platform_0.9.18.a(cc_hal.c.obj) (CC_PalWaitInterruptRND)
/home/jordan/ncs/v2.5.1/nrfxlib/crypto/nrf_cc312_platform/lib/cortex-m33/soft-float/no-interrupts/libnrf_cc312_platform_0.9.18.a(cc_pal_mem.c.obj)
                              /home/jordan/ncs/v2.5.1/nrfxlib/crypto/nrf_cc312_platform/lib/cortex-m33/soft-float/no-interrupts/libnrf_cc312_platform_0.9.18.a(nrf_cc3xx_platform.c.obj) (CC_PalMemCopyPlat)
/home/jordan/ncs/v2.5.1/nrfxlib/crypto/nrf_cc312_platform/lib/cortex-m33/soft-float/no-interrupts/libnrf_cc312_platform_0.9.18.a(cc_pal_mutex.c.obj)
                              /home/jordan/ncs/v2.5.1/nrfxlib/crypto/nrf_cc312_platform/lib/cortex-m33/soft-float/no-interrupts/libnrf_cc312_platform_0.9.18.a(cc_pal.c.obj) (CC_PalMutexCreate)
/home/jordan/ncs/v2.5.1/nrfxlib/crypto/nrf_cc312_platform/lib/cortex-m33/soft-float/no-interrupts/libnrf_cc312_platform_0.9.18.a(cc_pal_pm.c.obj)
                              /home/jordan/ncs/v2.5.1/nrfxlib/crypto/nrf_cc312_platform/lib/cortex-m33/soft-float/no-interrupts/libnrf_cc312_platform_0.9.18.a(cc_pal.c.obj) (CC_PalPowerSaveModeInit)
/home/jordan/ncs/v2.5.1/nrfxlib/crypto/nrf_cc312_platform/lib/cortex-m33/soft-float/no-interrupts/libnrf_cc312_platform_0.9.18.a(threading_alt.c.obj)
                              /home/jordan/ncs/v2.5.1/nrfxlib/crypto/nrf_cc312_platform/lib/cortex-m33/soft-float/no-interrupts/libnrf_cc312_platform_0.9.18.a(ctr_drbg.c.obj) (mbedtls_mutex_unlock)
/home/jordan/ncs/v2.5.1/nrfxlib/crypto/nrf_cc312_platform/lib/cortex-m33/soft-float/no-interrupts/libnrf_cc312_platform_0.9.18.a(nrf_cc3xx_platform_abort.c.obj)
                              /home/jordan/ncs/v2.5.1/nrfxlib/crypto/nrf_cc312_platform/lib/cortex-m33/soft-float/no-interrupts/libnrf_cc312_platform_0.9.18.a(cc_lib.c.obj) (CC_PalAbort)
/home/jordan/ncs/v2.5.1/nrfxlib/crypto/nrf_cc312_platform/lib/cortex-m33/soft-float/no-interrupts/libnrf_cc312_platform_0.9.18.a(nrf_cc3xx_platform_hmac_drbg.c.obj)
                              /home/jordan/ncs/v2.5.1/nrfxlib/crypto/nrf_cc312_platform/lib/cortex-m33/soft-float/no-interrupts/libnrf_cc312_platform_0.9.18.a(cc_lib.c.obj) (nrf_cc3xx_platform_hmac_drbg_init)
/home/jordan/ncs/v2.5.1/nrfxlib/crypto/nrf_cc312_platform/lib/cortex-m33/soft-float/no-interrupts/libnrf_cc312_platform_0.9.18.a(nrf_cc3xx_platform_mutex.c.obj)
                              /home/jordan/ncs/v2.5.1/nrfxlib/crypto/nrf_cc312_platform/lib/cortex-m33/soft-float/no-interrupts/libnrf_cc312_platform_0.9.18.a(cc_pal_mutex.c.obj) (platform_mutex_apis)
/home/jordan/ncs/v2.5.1/nrfxlib/crypto/nrf_cc312_platform/lib/cortex-m33/soft-float/no-interrupts/libnrf_cc312_platform_0.9.18.a(llf_rnd_trng90b.c.obj)
                              /home/jordan/ncs/v2.5.1/nrfxlib/crypto/nrf_cc312_platform/lib/cortex-m33/soft-float/no-interrupts/libnrf_cc312_platform_0.9.18.a(cc_lib.c.obj) (LLF_RND_RunTrngStartupTest)
/home/jordan/ncs/v2.5.1/nrfxlib/crypto/nrf_cc312_platform/lib/cortex-m33/soft-float/no-interrupts/libnrf_cc312_platform_0.9.18.a(trng_api.c.obj)
                              /home/jordan/ncs/v2.5.1/nrfxlib/crypto/nrf_cc312_platform/lib/cortex-m33/soft-float/no-interrupts/libnrf_cc312_platform_0.9.18.a(entropy.c.obj) (mbedtls_hardware_poll)
/home/jordan/ncs/v2.5.1/nrfxlib/crypto/nrf_cc312_platform/lib/cortex-m33/soft-float/no-interrupts/libnrf_cc312_platform_0.9.18.a(aes_alt.c.obj)
                              /home/jordan/ncs/v2.5.1/nrfxlib/crypto/nrf_cc312_platform/lib/cortex-m33/soft-float/no-interrupts/libnrf_cc312_platform_0.9.18.a(ctr_drbg.c.obj) (cc_mbedtls_aes_init)
/home/jordan/ncs/v2.5.1/nrfxlib/crypto/nrf_cc312_platform/lib/cortex-m33/soft-float/no-interrupts/libnrf_cc312_platform_0.9.18.a(sha256_alt.c.obj)
                              /home/jordan/ncs/v2.5.1/nrfxlib/crypto/nrf_cc312_platform/lib/cortex-m33/soft-float/no-interrupts/libnrf_cc312_platform_0.9.18.a(entropy.c.obj) (cc_mbedtls_sha256_init)
/home/jordan/ncs/v2.5.1/nrfxlib/crypto/nrf_cc312_platform/lib/cortex-m33/soft-float/no-interrupts/libnrf_cc312_platform_0.9.18.a(mbedtls_hash_common.c.obj)
                              /home/jordan/ncs/v2.5.1/nrfxlib/crypto/nrf_cc312_platform/lib/cortex-m33/soft-float/no-interrupts/libnrf_cc312_platform_0.9.18.a(sha256_alt.c.obj) (mbedtls_sha_process_internal)
/home/jordan/ncs/v2.5.1/nrfxlib/crypto/nrf_cc312_platform/lib/cortex-m33/soft-float/no-interrupts/libnrf_cc312_platform_0.9.18.a(sha256.c.obj)
                              /home/jordan/ncs/v2.5.1/nrfxlib/crypto/nrf_cc312_platform/lib/cortex-m33/soft-float/no-interrupts/libnrf_cc312_platform_0.9.18.a(entropy.c.obj) (cc_mbedtls_sha256)
/home/jordan/ncs/v2.5.1/nrfxlib/crypto/nrf_cc312_platform/lib/cortex-m33/soft-float/no-interrupts/libnrf_cc312_platform_0.9.18.a(hmac_drbg_alt.c.obj)
                              /home/jordan/ncs/v2.5.1/nrfxlib/crypto/nrf_cc312_platform/lib/cortex-m33/soft-float/no-interrupts/libnrf_cc312_platform_0.9.18.a(nrf_cc3xx_platform_hmac_drbg.c.obj) (cc_mbedtls_hmac_drbg_init)
/home/jordan/ncs/v2.5.1/nrfxlib/crypto/nrf_cc312_platform/lib/cortex-m33/soft-float/no-interrupts/libnrf_cc312_platform_0.9.18.a(cc_rng_plat.c.obj)
                              /home/jordan/ncs/v2.5.1/nrfxlib/crypto/nrf_cc312_platform/lib/cortex-m33/soft-float/no-interrupts/libnrf_cc312_platform_0.9.18.a(cc_lib.c.obj) (RNG_PLAT_SetUserRngParameters)
/home/jordan/ncs/v2.5.1/nrfxlib/crypto/nrf_cc312_platform/lib/cortex-m33/soft-float/no-interrupts/libnrf_cc312_platform_0.9.18.a(cc_pal_trng.c.obj)
                              /home/jordan/ncs/v2.5.1/nrfxlib/crypto/nrf_cc312_platform/lib/cortex-m33/soft-float/no-interrupts/libnrf_cc312_platform_0.9.18.a(cc_rng_plat.c.obj) (CC_PalTrngParamGet)
/home/jordan/ncs/v2.5.1/nrfxlib/crypto/nrf_cc312_platform/lib/cortex-m33/soft-float/no-interrupts/libnrf_cc312_platform_0.9.18.a(llf_rnd.c.obj)
                              /home/jordan/ncs/v2.5.1/nrfxlib/crypto/nrf_cc312_platform/lib/cortex-m33/soft-float/no-interrupts/libnrf_cc312_platform_0.9.18.a(llf_rnd_trng90b.c.obj) (LLF_RND_WaitRngInterrupt)
/home/jordan/ncs/v2.5.1/nrfxlib/crypto/nrf_cc312_platform/lib/cortex-m33/soft-float/no-interrupts/libnrf_cc312_platform_0.9.18.a(driver_common.c.obj)
                              /home/jordan/ncs/v2.5.1/nrfxlib/crypto/nrf_cc312_platform/lib/cortex-m33/soft-float/no-interrupts/libnrf_cc312_platform_0.9.18.a(aes_alt.c.obj) (SetDataBuffersInfo)
/home/jordan/ncs/v2.5.1/nrfxlib/crypto/nrf_cc312_platform/lib/cortex-m33/soft-float/no-interrupts/libnrf_cc312_platform_0.9.18.a(hash_driver.c.obj)
                              /home/jordan/ncs/v2.5.1/nrfxlib/crypto/nrf_cc312_platform/lib/cortex-m33/soft-float/no-interrupts/libnrf_cc312_platform_0.9.18.a(mbedtls_hash_common.c.obj) (InitHashDrv)
/home/jordan/ncs/v2.5.1/nrfxlib/crypto/nrf_cc312_platform/lib/cortex-m33/soft-float/no-interrupts/libnrf_cc312_platform_0.9.18.a(aes_driver.c.obj)
                              /home/jordan/ncs/v2.5.1/nrfxlib/crypto/nrf_cc312_platform/lib/cortex-m33/soft-float/no-interrupts/libnrf_cc312_platform_0.9.18.a(aes_alt.c.obj) (ProcessAesDrv)
/home/jordan/ncs/v2.5.1/nrfxlib/crypto/nrf_cc312_platform/lib/cortex-m33/soft-float/no-interrupts/libnrf_cc312_platform_0.9.18.a(kmu_shared.c.obj)
                              /home/jordan/ncs/v2.5.1/nrfxlib/crypto/nrf_cc312_platform/lib/cortex-m33/soft-float/no-interrupts/libnrf_cc312_platform_0.9.18.a(aes_driver.c.obj) (kmu_validate_slot_and_size)
/home/jordan/ncs/v2.5.1/nrfxlib/crypto/nrf_cc312_platform/lib/cortex-m33/soft-float/no-interrupts/libnrf_cc312_platform_0.9.18.a(cc_platform_keys.c.obj)
                              /home/jordan/ncs/v2.5.1/nrfxlib/crypto/nrf_cc312_platform/lib/cortex-m33/soft-float/no-interrupts/libnrf_cc312_platform_0.9.18.a(kmu_shared.c.obj) (write_invalid_chacha20_key)
/home/jordan/ncs/v2.5.1/nrfxlib/crypto/nrf_cc312_platform/lib/cortex-m33/soft-float/no-interrupts/libnrf_cc312_platform_0.9.18.a(cc_util_cmac.c.obj)
                              /home/jordan/ncs/v2.5.1/nrfxlib/crypto/nrf_cc312_platform/lib/cortex-m33/soft-float/no-interrupts/libnrf_cc312_platform_0.9.18.a(kmu_shared.c.obj) (UtilCmacBuildDataForDerivation)
/home/jordan/ncs/v2.5.1/nrfxlib/crypto/nrf_cc312_platform/lib/cortex-m33/soft-float/no-interrupts/libnrf_cc312_platform_0.9.18.a(cc_pal_buff_attr.c.obj)
                              /home/jordan/ncs/v2.5.1/nrfxlib/crypto/nrf_cc312_platform/lib/cortex-m33/soft-float/no-interrupts/libnrf_cc312_platform_0.9.18.a(driver_common.c.obj) (CC_PalDataBufferAttrGet)
/home/jordan/ncs/toolchains/7795df4459/opt/zephyr-sdk/arm-zephyr-eabi/bin/../lib/gcc/arm-zephyr-eabi/12.2.0/thumb/v8-m.main/nofp/libgcc.a(cmse.o)
                              secure_fw/spm/libtfm_spm.a(tfm_hal_isolation.o) (cmse_check_address_range)
/home/jordan/ncs/toolchains/7795df4459/opt/zephyr-sdk/arm-zephyr-eabi/bin/../lib/gcc/arm-zephyr-eabi/12.2.0/../../../../arm-zephyr-eabi/lib/thumb/v8-m.main/nofp/libc_nano.a(lib_a-exit.o)
                              /home/jordan/ncs/toolchains/7795df4459/opt/zephyr-sdk/arm-zephyr-eabi/bin/../lib/gcc/arm-zephyr-eabi/12.2.0/../../../../arm-zephyr-eabi/lib/thumb/v8-m.main/nofp/crt0.o (exit)
/home/jordan/ncs/toolchains/7795df4459/opt/zephyr-sdk/arm-zephyr-eabi/bin/../lib/gcc/arm-zephyr-eabi/12.2.0/../../../../arm-zephyr-eabi/lib/thumb/v8-m.main/nofp/libc_nano.a(lib_a-impure.o)
                              /home/jordan/ncs/toolchains/7795df4459/opt/zephyr-sdk/arm-zephyr-eabi/bin/../lib/gcc/arm-zephyr-eabi/12.2.0/../../../../arm-zephyr-eabi/lib/thumb/v8-m.main/nofp/libc_nano.a(lib_a-exit.o) (_global_impure_ptr)
/home/jordan/ncs/toolchains/7795df4459/opt/zephyr-sdk/arm-zephyr-eabi/bin/../lib/gcc/arm-zephyr-eabi/12.2.0/../../../../arm-zephyr-eabi/lib/thumb/v8-m.main/nofp/libc_nano.a(lib_a-init.o)
                              /home/jordan/ncs/toolchains/7795df4459/opt/zephyr-sdk/arm-zephyr-eabi/bin/../lib/gcc/arm-zephyr-eabi/12.2.0/../../../../arm-zephyr-eabi/lib/thumb/v8-m.main/nofp/crt0.o (__libc_init_array)
/home/jordan/ncs/toolchains/7795df4459/opt/zephyr-sdk/arm-zephyr-eabi/bin/../lib/gcc/arm-zephyr-eabi/12.2.0/../../../../arm-zephyr-eabi/lib/thumb/v8-m.main/nofp/libc_nano.a(lib_a-memcmp.o)
                              /home/jordan/ncs/v2.5.1/nrfxlib/crypto/nrf_cc312_platform/lib/cortex-m33/soft-float/no-interrupts/libnrf_cc312_platform_0.9.18.a(cc_pal_mem.c.obj) (memcmp)
/home/jordan/ncs/toolchains/7795df4459/opt/zephyr-sdk/arm-zephyr-eabi/bin/../lib/gcc/arm-zephyr-eabi/12.2.0/../../../../arm-zephyr-eabi/lib/thumb/v8-m.main/nofp/libc_nano.a(lib_a-memmove.o)
                              /home/jordan/ncs/v2.5.1/nrfxlib/crypto/nrf_cc312_platform/lib/cortex-m33/soft-float/no-interrupts/libnrf_cc312_platform_0.9.18.a(cc_pal_mem.c.obj) (memmove)
/home/jordan/ncs/toolchains/7795df4459/opt/zephyr-sdk/arm-zephyr-eabi/bin/../lib/gcc/arm-zephyr-eabi/12.2.0/../../../../arm-zephyr-eabi/lib/thumb/v8-m.main/nofp/libnosys.a(_exit.o)
                              /home/jordan/ncs/toolchains/7795df4459/opt/zephyr-sdk/arm-zephyr-eabi/bin/../lib/gcc/arm-zephyr-eabi/12.2.0/../../../../arm-zephyr-eabi/lib/thumb/v8-m.main/nofp/libc_nano.a(lib_a-exit.o) (_exit)

Discarded input sections

 .text          0x0000000000000000        0x0 /home/jordan/ncs/toolchains/7795df4459/opt/zephyr-sdk/arm-zephyr-eabi/bin/../lib/gcc/arm-zephyr-eabi/12.2.0/thumb/v8-m.main/nofp/crti.o
 .data          0x0000000000000000        0x0 /home/jordan/ncs/toolchains/7795df4459/opt/zephyr-sdk/arm-zephyr-eabi/bin/../lib/gcc/arm-zephyr-eabi/12.2.0/thumb/v8-m.main/nofp/crti.o
 .bss           0x0000000000000000        0x0 /home/jordan/ncs/toolchains/7795df4459/opt/zephyr-sdk/arm-zephyr-eabi/bin/../lib/gcc/arm-zephyr-eabi/12.2.0/thumb/v8-m.main/nofp/crti.o
 .data          0x0000000000000000        0x4 /home/jordan/ncs/toolchains/7795df4459/opt/zephyr-sdk/arm-zephyr-eabi/bin/../lib/gcc/arm-zephyr-eabi/12.2.0/thumb/v8-m.main/nofp/crtbegin.o
 .rodata        0x0000000000000000       0x24 /home/jordan/ncs/toolchains/7795df4459/opt/zephyr-sdk/arm-zephyr-eabi/bin/../lib/gcc/arm-zephyr-eabi/12.2.0/thumb/v8-m.main/nofp/crtbegin.o
 .data          0x0000000000000000        0x0 /home/jordan/ncs/toolchains/7795df4459/opt/zephyr-sdk/arm-zephyr-eabi/bin/../lib/gcc/arm-zephyr-eabi/12.2.0/../../../../arm-zephyr-eabi/lib/thumb/v8-m.main/nofp/crt0.o
 .bss           0x0000000000000000        0x0 /home/jordan/ncs/toolchains/7795df4459/opt/zephyr-sdk/arm-zephyr-eabi/bin/../lib/gcc/arm-zephyr-eabi/12.2.0/../../../../arm-zephyr-eabi/lib/thumb/v8-m.main/nofp/crt0.o
 .ARM.extab     0x0000000000000000        0x0 /home/jordan/ncs/toolchains/7795df4459/opt/zephyr-sdk/arm-zephyr-eabi/bin/../lib/gcc/arm-zephyr-eabi/12.2.0/../../../../arm-zephyr-eabi/lib/thumb/v8-m.main/nofp/crt0.o
 .text          0x0000000000000000        0x0 secure_fw/CMakeFiles/tfm_s.dir/partitions/ns_agent_tz/psa_api_veneers_v80m.o
 .data          0x0000000000000000        0x0 secure_fw/CMakeFiles/tfm_s.dir/partitions/ns_agent_tz/psa_api_veneers_v80m.o
 .bss           0x0000000000000000        0x0 secure_fw/CMakeFiles/tfm_s.dir/partitions/ns_agent_tz/psa_api_veneers_v80m.o
 .comment       0x0000000000000000       0x21 secure_fw/CMakeFiles/tfm_s.dir/partitions/ns_agent_tz/psa_api_veneers_v80m.o
 .ARM.attributes
                0x0000000000000000       0x32 secure_fw/CMakeFiles/tfm_s.dir/partitions/ns_agent_tz/psa_api_veneers_v80m.o
 .text          0x0000000000000000        0x0 secure_fw/CMakeFiles/tfm_s.dir/__/platform/ext/target/nordic_nrf/common/core/startup.o
 .data          0x0000000000000000        0x0 secure_fw/CMakeFiles/tfm_s.dir/__/platform/ext/target/nordic_nrf/common/core/startup.o
 .bss           0x0000000000000000        0x0 secure_fw/CMakeFiles/tfm_s.dir/__/platform/ext/target/nordic_nrf/common/core/startup.o
 .text          0x0000000000000000        0x0 secure_fw/CMakeFiles/tfm_s.dir/__/platform/ext/target/nordic_nrf/common/core/startup_nrf5340.o
 .data          0x0000000000000000        0x0 secure_fw/CMakeFiles/tfm_s.dir/__/platform/ext/target/nordic_nrf/common/core/startup_nrf5340.o
 .bss           0x0000000000000000        0x0 secure_fw/CMakeFiles/tfm_s.dir/__/platform/ext/target/nordic_nrf/common/core/startup_nrf5340.o
 .text          0x0000000000000000        0x0 secure_fw/CMakeFiles/tfm_s.dir/__/platform/ext/common/faults.o
 .data          0x0000000000000000        0x0 secure_fw/CMakeFiles/tfm_s.dir/__/platform/ext/common/faults.o
 .bss           0x0000000000000000        0x0 secure_fw/CMakeFiles/tfm_s.dir/__/platform/ext/common/faults.o
 .text          0x0000000000000000        0x0 secure_fw/CMakeFiles/tfm_s.dir/__/generated/secure_fw/partitions/crypto/auto_generated/load_info_tfm_crypto.o
 .data          0x0000000000000000        0x0 secure_fw/CMakeFiles/tfm_s.dir/__/generated/secure_fw/partitions/crypto/auto_generated/load_info_tfm_crypto.o
 .bss           0x0000000000000000        0x0 secure_fw/CMakeFiles/tfm_s.dir/__/generated/secure_fw/partitions/crypto/auto_generated/load_info_tfm_crypto.o
 .text          0x0000000000000000        0x0 secure_fw/CMakeFiles/tfm_s.dir/__/generated/secure_fw/partitions/platform/auto_generated/load_info_tfm_platform.o
 .data          0x0000000000000000        0x0 secure_fw/CMakeFiles/tfm_s.dir/__/generated/secure_fw/partitions/platform/auto_generated/load_info_tfm_platform.o
 .bss           0x0000000000000000        0x0 secure_fw/CMakeFiles/tfm_s.dir/__/generated/secure_fw/partitions/platform/auto_generated/load_info_tfm_platform.o
 .text          0x0000000000000000        0x0 secure_fw/CMakeFiles/tfm_s.dir/partitions/ns_agent_tz/load_info_ns_agent_tz.o
 .data          0x0000000000000000        0x0 secure_fw/CMakeFiles/tfm_s.dir/partitions/ns_agent_tz/load_info_ns_agent_tz.o
 .bss           0x0000000000000000        0x0 secure_fw/CMakeFiles/tfm_s.dir/partitions/ns_agent_tz/load_info_ns_agent_tz.o
 .text          0x0000000000000000        0x0 secure_fw/CMakeFiles/tfm_s.dir/__/platform/ext/common/syscalls_stub.o
 .data          0x0000000000000000        0x0 secure_fw/CMakeFiles/tfm_s.dir/__/platform/ext/common/syscalls_stub.o
 .bss           0x0000000000000000        0x0 secure_fw/CMakeFiles/tfm_s.dir/__/platform/ext/common/syscalls_stub.o
 .text._close   0x0000000000000000        0x2 secure_fw/CMakeFiles/tfm_s.dir/__/platform/ext/common/syscalls_stub.o
 .text._fstat   0x0000000000000000        0x2 secure_fw/CMakeFiles/tfm_s.dir/__/platform/ext/common/syscalls_stub.o
 .text._getpid  0x0000000000000000        0x2 secure_fw/CMakeFiles/tfm_s.dir/__/platform/ext/common/syscalls_stub.o
 .text._isatty  0x0000000000000000        0x2 secure_fw/CMakeFiles/tfm_s.dir/__/platform/ext/common/syscalls_stub.o
 .text._kill    0x0000000000000000        0x2 secure_fw/CMakeFiles/tfm_s.dir/__/platform/ext/common/syscalls_stub.o
 .text._lseek   0x0000000000000000        0x2 secure_fw/CMakeFiles/tfm_s.dir/__/platform/ext/common/syscalls_stub.o
 .text._read    0x0000000000000000        0x2 secure_fw/CMakeFiles/tfm_s.dir/__/platform/ext/common/syscalls_stub.o
 .text._write   0x0000000000000000        0x2 secure_fw/CMakeFiles/tfm_s.dir/__/platform/ext/common/syscalls_stub.o
 .debug_info    0x0000000000000000       0xbc secure_fw/CMakeFiles/tfm_s.dir/__/platform/ext/common/syscalls_stub.o
 .debug_abbrev  0x0000000000000000       0x5e secure_fw/CMakeFiles/tfm_s.dir/__/platform/ext/common/syscalls_stub.o
 .debug_aranges
                0x0000000000000000       0x58 secure_fw/CMakeFiles/tfm_s.dir/__/platform/ext/common/syscalls_stub.o
 .debug_ranges  0x0000000000000000       0x48 secure_fw/CMakeFiles/tfm_s.dir/__/platform/ext/common/syscalls_stub.o
 .debug_line    0x0000000000000000      0x109 secure_fw/CMakeFiles/tfm_s.dir/__/platform/ext/common/syscalls_stub.o
 .debug_str     0x0000000000000000      0x26a secure_fw/CMakeFiles/tfm_s.dir/__/platform/ext/common/syscalls_stub.o
 .comment       0x0000000000000000       0x21 secure_fw/CMakeFiles/tfm_s.dir/__/platform/ext/common/syscalls_stub.o
 .debug_frame   0x0000000000000000       0x90 secure_fw/CMakeFiles/tfm_s.dir/__/platform/ext/common/syscalls_stub.o
 .ARM.attributes
                0x0000000000000000       0x32 secure_fw/CMakeFiles/tfm_s.dir/__/platform/ext/common/syscalls_stub.o
 .text          0x0000000000000000        0x0 platform/libplatform_s.a(system_nrf5340_application.o)
 .data          0x0000000000000000        0x0 platform/libplatform_s.a(system_nrf5340_application.o)
 .bss           0x0000000000000000        0x0 platform/libplatform_s.a(system_nrf5340_application.o)
 .text.SystemCoreClockUpdate
                0x0000000000000000       0x20 platform/libplatform_s.a(system_nrf5340_application.o)
 .text.SystemStoreFICRNS
                0x0000000000000000       0x34 platform/libplatform_s.a(system_nrf5340_application.o)
 .text.SystemLockFICRNS
                0x0000000000000000       0x20 platform/libplatform_s.a(system_nrf5340_application.o)
 .data.SystemCoreClock
                0x0000000000000000        0x4 platform/libplatform_s.a(system_nrf5340_application.o)
 .text          0x0000000000000000        0x0 secure_fw/partitions/lib/runtime/libtfm_sprt.a(crt_memset.o)
 .data          0x0000000000000000        0x0 secure_fw/partitions/lib/runtime/libtfm_sprt.a(crt_memset.o)
 .bss           0x0000000000000000        0x0 secure_fw/partitions/lib/runtime/libtfm_sprt.a(crt_memset.o)
 .text          0x0000000000000000        0x0 secure_fw/partitions/lib/runtime/libtfm_sprt.a(psa_api_ipc.o)
 .data          0x0000000000000000        0x0 secure_fw/partitions/lib/runtime/libtfm_sprt.a(psa_api_ipc.o)
 .bss           0x0000000000000000        0x0 secure_fw/partitions/lib/runtime/libtfm_sprt.a(psa_api_ipc.o)
 .text.psa_skip
                0x0000000000000000       0x10 secure_fw/partitions/lib/runtime/libtfm_sprt.a(psa_api_ipc.o)
 .text.psa_rot_lifecycle_state
                0x0000000000000000       0x10 secure_fw/partitions/lib/runtime/libtfm_sprt.a(psa_api_ipc.o)
 .text          0x0000000000000000        0x0 secure_fw/partitions/lib/runtime/libtfm_sprt.a(sprt_partition_metadata_indicator.o)
 .data          0x0000000000000000        0x0 secure_fw/partitions/lib/runtime/libtfm_sprt.a(sprt_partition_metadata_indicator.o)
 .bss           0x0000000000000000        0x0 secure_fw/partitions/lib/runtime/libtfm_sprt.a(sprt_partition_metadata_indicator.o)
 .text          0x0000000000000000        0x0 secure_fw/spm/libtfm_spm.a(utilities.o)
 .data          0x0000000000000000        0x0 secure_fw/spm/libtfm_spm.a(utilities.o)
 .bss           0x0000000000000000        0x0 secure_fw/spm/libtfm_spm.a(utilities.o)
 .text          0x0000000000000000        0x0 secure_fw/spm/libtfm_spm.a(main.o)
 .data          0x0000000000000000        0x0 secure_fw/spm/libtfm_spm.a(main.o)
 .bss           0x0000000000000000        0x0 secure_fw/spm/libtfm_spm.a(main.o)
 .text          0x0000000000000000        0x0 secure_fw/spm/libtfm_spm.a(tfm_core_svcalls_ipc.o)
 .data          0x0000000000000000        0x0 secure_fw/spm/libtfm_spm.a(tfm_core_svcalls_ipc.o)
 .bss           0x0000000000000000        0x0 secure_fw/spm/libtfm_spm.a(tfm_core_svcalls_ipc.o)
 .text          0x0000000000000000        0x0 secure_fw/spm/libtfm_spm.a(tfm_arch_v8m_main.o)
 .data          0x0000000000000000        0x0 secure_fw/spm/libtfm_spm.a(tfm_arch_v8m_main.o)
 .bss           0x0000000000000000        0x0 secure_fw/spm/libtfm_spm.a(tfm_arch_v8m_main.o)
 .text          0x0000000000000000        0x0 secure_fw/spm/libtfm_spm.a(ns_agent_tz_v80m.o)
 .data          0x0000000000000000        0x0 secure_fw/spm/libtfm_spm.a(ns_agent_tz_v80m.o)
 .bss           0x0000000000000000        0x0 secure_fw/spm/libtfm_spm.a(ns_agent_tz_v80m.o)
 .text          0x0000000000000000        0x0 secure_fw/spm/libtfm_spm.a(tfm_hal_isolation.o)
 .data          0x0000000000000000        0x0 secure_fw/spm/libtfm_spm.a(tfm_hal_isolation.o)
 .bss           0x0000000000000000        0x0 secure_fw/spm/libtfm_spm.a(tfm_hal_isolation.o)
 .rodata.partition_named_mmio_list
                0x0000000000000000        0x0 secure_fw/spm/libtfm_spm.a(tfm_hal_isolation.o)
 .text          0x0000000000000000        0x0 secure_fw/spm/libtfm_spm.a(faults.o)
 .data          0x0000000000000000        0x0 secure_fw/spm/libtfm_spm.a(faults.o)
 .bss           0x0000000000000000        0x0 secure_fw/spm/libtfm_spm.a(faults.o)
 .text          0x0000000000000000        0x0 secure_fw/spm/libtfm_spm.a(target_cfg.o)
 .data          0x0000000000000000        0x0 secure_fw/spm/libtfm_spm.a(target_cfg.o)
 .bss           0x0000000000000000        0x0 secure_fw/spm/libtfm_spm.a(target_cfg.o)
 .text.spu_periph_configure_to_secure
                0x0000000000000000        0x6 secure_fw/spm/libtfm_spm.a(target_cfg.o)
 .text.spu_periph_configure_to_non_secure
                0x0000000000000000        0x6 secure_fw/spm/libtfm_spm.a(target_cfg.o)
 .text          0x0000000000000000        0x0 secure_fw/spm/libtfm_spm.a(tfm_boot_data.o)
 .data          0x0000000000000000        0x0 secure_fw/spm/libtfm_spm.a(tfm_boot_data.o)
 .bss           0x0000000000000000        0x0 secure_fw/spm/libtfm_spm.a(tfm_boot_data.o)
 .text          0x0000000000000000        0x0 secure_fw/spm/libtfm_spm.a(tfm_arch.o)
 .data          0x0000000000000000        0x0 secure_fw/spm/libtfm_spm.a(tfm_arch.o)
 .bss           0x0000000000000000        0x0 secure_fw/spm/libtfm_spm.a(tfm_arch.o)
 .text          0x0000000000000000        0x0 secure_fw/spm/libtfm_spm.a(spm_ipc.o)
 .data          0x0000000000000000        0x0 secure_fw/spm/libtfm_spm.a(spm_ipc.o)
 .bss           0x0000000000000000        0x0 secure_fw/spm/libtfm_spm.a(spm_ipc.o)
 .text          0x0000000000000000        0x0 secure_fw/spm/libtfm_spm.a(spm_cross_call.o)
 .data          0x0000000000000000        0x0 secure_fw/spm/libtfm_spm.a(spm_cross_call.o)
 .bss           0x0000000000000000        0x0 secure_fw/spm/libtfm_spm.a(spm_cross_call.o)
 .text          0x0000000000000000        0x0 secure_fw/spm/libtfm_spm.a(rom_loader.o)
 .data          0x0000000000000000        0x0 secure_fw/spm/libtfm_spm.a(rom_loader.o)
 .bss           0x0000000000000000        0x0 secure_fw/spm/libtfm_spm.a(rom_loader.o)
 .text          0x0000000000000000        0x0 secure_fw/spm/libtfm_spm.a(psa_api.o)
 .data          0x0000000000000000        0x0 secure_fw/spm/libtfm_spm.a(psa_api.o)
 .bss           0x0000000000000000        0x0 secure_fw/spm/libtfm_spm.a(psa_api.o)
 .text          0x0000000000000000        0x0 secure_fw/spm/libtfm_spm.a(backend_ipc.o)
 .data          0x0000000000000000        0x0 secure_fw/spm/libtfm_spm.a(backend_ipc.o)
 .bss           0x0000000000000000        0x0 secure_fw/spm/libtfm_spm.a(backend_ipc.o)
 .text          0x0000000000000000        0x0 secure_fw/spm/libtfm_spm.a(tfm_pools.o)
 .data          0x0000000000000000        0x0 secure_fw/spm/libtfm_spm.a(tfm_pools.o)
 .bss           0x0000000000000000        0x0 secure_fw/spm/libtfm_spm.a(tfm_pools.o)
 .text          0x0000000000000000        0x0 secure_fw/spm/libtfm_spm.a(thread.o)
 .data          0x0000000000000000        0x0 secure_fw/spm/libtfm_spm.a(thread.o)
 .bss           0x0000000000000000        0x0 secure_fw/spm/libtfm_spm.a(thread.o)
 .text          0x0000000000000000        0x0 secure_fw/spm/libtfm_spm.a(tfm_spm_ns_ctx.o)
 .data          0x0000000000000000        0x0 secure_fw/spm/libtfm_spm.a(tfm_spm_ns_ctx.o)
 .bss           0x0000000000000000        0x0 secure_fw/spm/libtfm_spm.a(tfm_spm_ns_ctx.o)
 .text          0x0000000000000000        0x0 secure_fw/spm/libtfm_spm.a(tfm_hal_platform_common.o)
 .data          0x0000000000000000        0x0 secure_fw/spm/libtfm_spm.a(tfm_hal_platform_common.o)
 .bss           0x0000000000000000        0x0 secure_fw/spm/libtfm_spm.a(tfm_hal_platform_common.o)
 .text          0x0000000000000000        0x0 secure_fw/partitions/crypto/libtfm_psa_rot_partition_crypto.a(crypto_init.o)
 .data          0x0000000000000000        0x0 secure_fw/partitions/crypto/libtfm_psa_rot_partition_crypto.a(crypto_init.o)
 .bss           0x0000000000000000        0x0 secure_fw/partitions/crypto/libtfm_psa_rot_partition_crypto.a(crypto_init.o)
 .text.tfm_crypto_get_caller_id
                0x0000000000000000       0x10 secure_fw/partitions/crypto/libtfm_psa_rot_partition_crypto.a(crypto_init.o)
 .text          0x0000000000000000        0x0 secure_fw/partitions/crypto/libtfm_psa_rot_partition_crypto.a(crypto_alloc.o)
 .data          0x0000000000000000        0x0 secure_fw/partitions/crypto/libtfm_psa_rot_partition_crypto.a(crypto_alloc.o)
 .bss           0x0000000000000000        0x0 secure_fw/partitions/crypto/libtfm_psa_rot_partition_crypto.a(crypto_alloc.o)
 .text.tfm_crypto_operation_alloc
                0x0000000000000000       0x50 secure_fw/partitions/crypto/libtfm_psa_rot_partition_crypto.a(crypto_alloc.o)
 .text.tfm_crypto_operation_release
                0x0000000000000000       0x4c secure_fw/partitions/crypto/libtfm_psa_rot_partition_crypto.a(crypto_alloc.o)
 .text.tfm_crypto_operation_lookup
                0x0000000000000000       0x48 secure_fw/partitions/crypto/libtfm_psa_rot_partition_crypto.a(crypto_alloc.o)
 .text          0x0000000000000000        0x0 secure_fw/partitions/crypto/libtfm_psa_rot_partition_crypto.a(crypto_cipher.o)
 .data          0x0000000000000000        0x0 secure_fw/partitions/crypto/libtfm_psa_rot_partition_crypto.a(crypto_cipher.o)
 .bss           0x0000000000000000        0x0 secure_fw/partitions/crypto/libtfm_psa_rot_partition_crypto.a(crypto_cipher.o)
 .text          0x0000000000000000        0x0 secure_fw/partitions/crypto/libtfm_psa_rot_partition_crypto.a(crypto_hash.o)
 .data          0x0000000000000000        0x0 secure_fw/partitions/crypto/libtfm_psa_rot_partition_crypto.a(crypto_hash.o)
 .bss           0x0000000000000000        0x0 secure_fw/partitions/crypto/libtfm_psa_rot_partition_crypto.a(crypto_hash.o)
 .text          0x0000000000000000        0x0 secure_fw/partitions/crypto/libtfm_psa_rot_partition_crypto.a(crypto_mac.o)
 .data          0x0000000000000000        0x0 secure_fw/partitions/crypto/libtfm_psa_rot_partition_crypto.a(crypto_mac.o)
 .bss           0x0000000000000000        0x0 secure_fw/partitions/crypto/libtfm_psa_rot_partition_crypto.a(crypto_mac.o)
 .text          0x0000000000000000        0x0 secure_fw/partitions/crypto/libtfm_psa_rot_partition_crypto.a(crypto_aead.o)
 .data          0x0000000000000000        0x0 secure_fw/partitions/crypto/libtfm_psa_rot_partition_crypto.a(crypto_aead.o)
 .bss           0x0000000000000000        0x0 secure_fw/partitions/crypto/libtfm_psa_rot_partition_crypto.a(crypto_aead.o)
 .text          0x0000000000000000        0x0 secure_fw/partitions/crypto/libtfm_psa_rot_partition_crypto.a(crypto_asymmetric.o)
 .data          0x0000000000000000        0x0 secure_fw/partitions/crypto/libtfm_psa_rot_partition_crypto.a(crypto_asymmetric.o)
 .bss           0x0000000000000000        0x0 secure_fw/partitions/crypto/libtfm_psa_rot_partition_crypto.a(crypto_asymmetric.o)
 .text          0x0000000000000000        0x0 secure_fw/partitions/crypto/libtfm_psa_rot_partition_crypto.a(crypto_key_derivation.o)
 .data          0x0000000000000000        0x0 secure_fw/partitions/crypto/libtfm_psa_rot_partition_crypto.a(crypto_key_derivation.o)
 .bss           0x0000000000000000        0x0 secure_fw/partitions/crypto/libtfm_psa_rot_partition_crypto.a(crypto_key_derivation.o)
 .text          0x0000000000000000        0x0 secure_fw/partitions/crypto/libtfm_psa_rot_partition_crypto.a(crypto_key_management.o)
 .data          0x0000000000000000        0x0 secure_fw/partitions/crypto/libtfm_psa_rot_partition_crypto.a(crypto_key_management.o)
 .bss           0x0000000000000000        0x0 secure_fw/partitions/crypto/libtfm_psa_rot_partition_crypto.a(crypto_key_management.o)
 .text          0x0000000000000000        0x0 secure_fw/partitions/crypto/libtfm_psa_rot_partition_crypto.a(crypto_rng.o)
 .data          0x0000000000000000        0x0 secure_fw/partitions/crypto/libtfm_psa_rot_partition_crypto.a(crypto_rng.o)
 .bss           0x0000000000000000        0x0 secure_fw/partitions/crypto/libtfm_psa_rot_partition_crypto.a(crypto_rng.o)
 .text          0x0000000000000000        0x0 secure_fw/partitions/crypto/libtfm_psa_rot_partition_crypto.a(crypto_library.o)
 .data          0x0000000000000000        0x0 secure_fw/partitions/crypto/libtfm_psa_rot_partition_crypto.a(crypto_library.o)
 .bss           0x0000000000000000        0x0 secure_fw/partitions/crypto/libtfm_psa_rot_partition_crypto.a(crypto_library.o)
 .text.tfm_crypto_core_library_key_attributes_from_client
                0x0000000000000000       0x52 secure_fw/partitions/crypto/libtfm_psa_rot_partition_crypto.a(crypto_library.o)
 .text.tfm_crypto_core_library_key_attributes_to_client
                0x0000000000000000       0x24 secure_fw/partitions/crypto/libtfm_psa_rot_partition_crypto.a(crypto_library.o)
 .text.mbedtls_psa_platform_get_builtin_key
                0x0000000000000000       0x4a secure_fw/partitions/crypto/libtfm_psa_rot_partition_crypto.a(crypto_library.o)
 .text          0x0000000000000000        0x0 secure_fw/partitions/crypto/libtfm_psa_rot_partition_crypto.a(intermedia_tfm_crypto.o)
 .data          0x0000000000000000        0x0 secure_fw/partitions/crypto/libtfm_psa_rot_partition_crypto.a(intermedia_tfm_crypto.o)
 .bss           0x0000000000000000        0x0 secure_fw/partitions/crypto/libtfm_psa_rot_partition_crypto.a(intermedia_tfm_crypto.o)
 .text          0x0000000000000000        0x0 platform/libplatform_crypto_keys.a(crypto_keys.o)
 .data          0x0000000000000000        0x0 platform/libplatform_crypto_keys.a(crypto_keys.o)
 .bss           0x0000000000000000        0x0 platform/libplatform_crypto_keys.a(crypto_keys.o)
 .text.tfm_plat_builtin_key_get_policy_table_ptr
                0x0000000000000000        0x4 platform/libplatform_crypto_keys.a(crypto_keys.o)
 .text          0x0000000000000000        0x0 secure_fw/partitions/crypto/mbedcrypto/nrf_security_src/libcrypto_service_mbedcrypto.a(memory_buffer_alloc.o)
 .data          0x0000000000000000        0x0 secure_fw/partitions/crypto/mbedcrypto/nrf_security_src/libcrypto_service_mbedcrypto.a(memory_buffer_alloc.o)
 .bss           0x0000000000000000        0x0 secure_fw/partitions/crypto/mbedcrypto/nrf_security_src/libcrypto_service_mbedcrypto.a(memory_buffer_alloc.o)
 .text.mbedtls_memory_buffer_set_verify
                0x0000000000000000        0xc secure_fw/partitions/crypto/mbedcrypto/nrf_security_src/libcrypto_service_mbedcrypto.a(memory_buffer_alloc.o)
 .text.mbedtls_memory_buffer_alloc_verify
                0x0000000000000000        0x4 secure_fw/partitions/crypto/mbedcrypto/nrf_security_src/libcrypto_service_mbedcrypto.a(memory_buffer_alloc.o)
 .text.mbedtls_memory_buffer_alloc_free
                0x0000000000000000        0xc secure_fw/partitions/crypto/mbedcrypto/nrf_security_src/libcrypto_service_mbedcrypto.a(memory_buffer_alloc.o)
 .text          0x0000000000000000        0x0 secure_fw/partitions/crypto/mbedcrypto/nrf_security_src/libcrypto_service_mbedcrypto.a(platform.o)
 .data          0x0000000000000000        0x0 secure_fw/partitions/crypto/mbedcrypto/nrf_security_src/libcrypto_service_mbedcrypto.a(platform.o)
 .bss           0x0000000000000000        0x0 secure_fw/partitions/crypto/mbedcrypto/nrf_security_src/libcrypto_service_mbedcrypto.a(platform.o)
 .text.mbedtls_calloc
                0x0000000000000000        0xc secure_fw/partitions/crypto/mbedcrypto/nrf_security_src/libcrypto_service_mbedcrypto.a(platform.o)
 .text.mbedtls_platform_set_printf
                0x0000000000000000        0xc secure_fw/partitions/crypto/mbedcrypto/nrf_security_src/libcrypto_service_mbedcrypto.a(platform.o)
 .text.mbedtls_platform_setup
                0x0000000000000000        0x4 secure_fw/partitions/crypto/mbedcrypto/nrf_security_src/libcrypto_service_mbedcrypto.a(platform.o)
 .text.mbedtls_platform_teardown
                0x0000000000000000        0x2 secure_fw/partitions/crypto/mbedcrypto/nrf_security_src/libcrypto_service_mbedcrypto.a(platform.o)
 .data.mbedtls_printf
                0x0000000000000000        0x4 secure_fw/partitions/crypto/mbedcrypto/nrf_security_src/libcrypto_service_mbedcrypto.a(platform.o)
 .text          0x0000000000000000        0x0 secure_fw/partitions/crypto/mbedcrypto/nrf_security_src/libcrypto_service_mbedcrypto.a(psa_crypto.o)
 .data          0x0000000000000000        0x0 secure_fw/partitions/crypto/mbedcrypto/nrf_security_src/libcrypto_service_mbedcrypto.a(psa_crypto.o)
 .bss           0x0000000000000000        0x0 secure_fw/partitions/crypto/mbedcrypto/nrf_security_src/libcrypto_service_mbedcrypto.a(psa_crypto.o)
 .text.key_type_is_raw_bytes
                0x0000000000000000       0x18 secure_fw/partitions/crypto/mbedcrypto/nrf_security_src/libcrypto_service_mbedcrypto.a(psa_crypto.o)
 .text.psa_mac_key_can_do
                0x0000000000000000       0x40 secure_fw/partitions/crypto/mbedcrypto/nrf_security_src/libcrypto_service_mbedcrypto.a(psa_crypto.o)
 .text.psa_key_policy_algorithm_intersection
                0x0000000000000000      0x42c secure_fw/partitions/crypto/mbedcrypto/nrf_security_src/libcrypto_service_mbedcrypto.a(psa_crypto.o)
 .text.psa_key_algorithm_permits
                0x0000000000000000      0x1f8 secure_fw/partitions/crypto/mbedcrypto/nrf_security_src/libcrypto_service_mbedcrypto.a(psa_crypto.o)
 .text.psa_aead_check_algorithm
                0x0000000000000000       0xa4 secure_fw/partitions/crypto/mbedcrypto/nrf_security_src/libcrypto_service_mbedcrypto.a(psa_crypto.o)
 .text.psa_key_derivation_check_input_type
                0x0000000000000000       0x60 secure_fw/partitions/crypto/mbedcrypto/nrf_security_src/libcrypto_service_mbedcrypto.a(psa_crypto.o)
 .text.psa_sign_verify_check_alg
                0x0000000000000000       0x80 secure_fw/partitions/crypto/mbedcrypto/nrf_security_src/libcrypto_service_mbedcrypto.a(psa_crypto.o)
 .text.psa_aead_final_checks
                0x0000000000000000       0x30 secure_fw/partitions/crypto/mbedcrypto/nrf_security_src/libcrypto_service_mbedcrypto.a(psa_crypto.o)
 .text.psa_mac_finalize_alg_and_key_validation.isra.0
                0x0000000000000000       0xe0 secure_fw/partitions/crypto/mbedcrypto/nrf_security_src/libcrypto_service_mbedcrypto.a(psa_crypto.o)
 .text.psa_start_key_creation.constprop.0
                0x0000000000000000       0xa4 secure_fw/partitions/crypto/mbedcrypto/nrf_security_src/libcrypto_service_mbedcrypto.a(psa_crypto.o)
 .text.psa_validate_unstructured_key_bit_size
                0x0000000000000000       0x3e secure_fw/partitions/crypto/mbedcrypto/nrf_security_src/libcrypto_service_mbedcrypto.a(psa_crypto.o)
 .text.psa_allocate_buffer_to_slot
                0x0000000000000000       0x26 secure_fw/partitions/crypto/mbedcrypto/nrf_security_src/libcrypto_service_mbedcrypto.a(psa_crypto.o)
 .text.psa_copy_key_material_into_slot
                0x0000000000000000       0x20 secure_fw/partitions/crypto/mbedcrypto/nrf_security_src/libcrypto_service_mbedcrypto.a(psa_crypto.o)
 .text.psa_import_key_into_slot
                0x0000000000000000       0x3a secure_fw/partitions/crypto/mbedcrypto/nrf_security_src/libcrypto_service_mbedcrypto.a(psa_crypto.o)
 .text.psa_get_and_lock_key_slot_with_policy
                0x0000000000000000       0xe8 secure_fw/partitions/crypto/mbedcrypto/nrf_security_src/libcrypto_service_mbedcrypto.a(psa_crypto.o)
 .text.psa_mac_compute_internal
                0x0000000000000000       0xd2 secure_fw/partitions/crypto/mbedcrypto/nrf_security_src/libcrypto_service_mbedcrypto.a(psa_crypto.o)
 .text.psa_sign_internal
                0x0000000000000000       0xd6 secure_fw/partitions/crypto/mbedcrypto/nrf_security_src/libcrypto_service_mbedcrypto.a(psa_crypto.o)
 .text.psa_verify_internal
                0x0000000000000000       0x82 secure_fw/partitions/crypto/mbedcrypto/nrf_security_src/libcrypto_service_mbedcrypto.a(psa_crypto.o)
 .text.psa_get_and_lock_transparent_key_slot_with_policy
                0x0000000000000000       0x40 secure_fw/partitions/crypto/mbedcrypto/nrf_security_src/libcrypto_service_mbedcrypto.a(psa_crypto.o)
 .text.mbedcrypto__psa_destroy_key
                0x0000000000000000       0x46 secure_fw/partitions/crypto/mbedcrypto/nrf_security_src/libcrypto_service_mbedcrypto.a(psa_crypto.o)
 .text.mbedcrypto__psa_get_key_attributes
                0x0000000000000000       0x46 secure_fw/partitions/crypto/mbedcrypto/nrf_security_src/libcrypto_service_mbedcrypto.a(psa_crypto.o)
 .text.psa_export_key_internal
                0x0000000000000000       0x52 secure_fw/partitions/crypto/mbedcrypto/nrf_security_src/libcrypto_service_mbedcrypto.a(psa_crypto.o)
 .text.mbedcrypto__psa_export_key
                0x0000000000000000       0x6a secure_fw/partitions/crypto/mbedcrypto/nrf_security_src/libcrypto_service_mbedcrypto.a(psa_crypto.o)
 .text.psa_export_public_key_internal
                0x0000000000000000       0x54 secure_fw/partitions/crypto/mbedcrypto/nrf_security_src/libcrypto_service_mbedcrypto.a(psa_crypto.o)
 .text.mbedcrypto__psa_export_public_key
                0x0000000000000000       0x7c secure_fw/partitions/crypto/mbedcrypto/nrf_security_src/libcrypto_service_mbedcrypto.a(psa_crypto.o)
 .text.mbedcrypto__psa_import_key
                0x0000000000000000       0xf2 secure_fw/partitions/crypto/mbedcrypto/nrf_security_src/libcrypto_service_mbedcrypto.a(psa_crypto.o)
 .text.mbedcrypto__psa_copy_key
                0x0000000000000000      0x16c secure_fw/partitions/crypto/mbedcrypto/nrf_security_src/libcrypto_service_mbedcrypto.a(psa_crypto.o)
 .text.mbedcrypto__psa_hash_abort
                0x0000000000000000       0x16 secure_fw/partitions/crypto/mbedcrypto/nrf_security_src/libcrypto_service_mbedcrypto.a(psa_crypto.o)
 .text.mbedcrypto__psa_hash_setup
                0x0000000000000000       0x3e secure_fw/partitions/crypto/mbedcrypto/nrf_security_src/libcrypto_service_mbedcrypto.a(psa_crypto.o)
 .text.mbedcrypto__psa_hash_update
                0x0000000000000000       0x28 secure_fw/partitions/crypto/mbedcrypto/nrf_security_src/libcrypto_service_mbedcrypto.a(psa_crypto.o)
 .text.mbedcrypto__psa_hash_finish
                0x0000000000000000       0x22 secure_fw/partitions/crypto/mbedcrypto/nrf_security_src/libcrypto_service_mbedcrypto.a(psa_crypto.o)
 .text.mbedcrypto__psa_hash_verify
                0x0000000000000000       0x66 secure_fw/partitions/crypto/mbedcrypto/nrf_security_src/libcrypto_service_mbedcrypto.a(psa_crypto.o)
 .text.mbedcrypto__psa_hash_compute
                0x0000000000000000       0x22 secure_fw/partitions/crypto/mbedcrypto/nrf_security_src/libcrypto_service_mbedcrypto.a(psa_crypto.o)
 .text.mbedcrypto__psa_hash_compare
                0x0000000000000000       0x66 secure_fw/partitions/crypto/mbedcrypto/nrf_security_src/libcrypto_service_mbedcrypto.a(psa_crypto.o)
 .text.mbedcrypto__psa_hash_clone
                0x0000000000000000       0x24 secure_fw/partitions/crypto/mbedcrypto/nrf_security_src/libcrypto_service_mbedcrypto.a(psa_crypto.o)
 .text.mbedcrypto__psa_mac_abort
                0x0000000000000000       0x22 secure_fw/partitions/crypto/mbedcrypto/nrf_security_src/libcrypto_service_mbedcrypto.a(psa_crypto.o)
 .text.psa_mac_setup
                0x0000000000000000       0xa8 secure_fw/partitions/crypto/mbedcrypto/nrf_security_src/libcrypto_service_mbedcrypto.a(psa_crypto.o)
 .text.mbedcrypto__psa_mac_sign_setup
                0x0000000000000000       0x18 secure_fw/partitions/crypto/mbedcrypto/nrf_security_src/libcrypto_service_mbedcrypto.a(psa_crypto.o)
 .text.mbedcrypto__psa_mac_verify_setup
                0x0000000000000000       0x18 secure_fw/partitions/crypto/mbedcrypto/nrf_security_src/libcrypto_service_mbedcrypto.a(psa_crypto.o)
 .text.mbedcrypto__psa_mac_update
                0x0000000000000000       0x28 secure_fw/partitions/crypto/mbedcrypto/nrf_security_src/libcrypto_service_mbedcrypto.a(psa_crypto.o)
 .text.mbedcrypto__psa_mac_sign_finish
                0x0000000000000000       0x6e secure_fw/partitions/crypto/mbedcrypto/nrf_security_src/libcrypto_service_mbedcrypto.a(psa_crypto.o)
 .text.mbedcrypto__psa_mac_verify_finish
                0x0000000000000000       0x40 secure_fw/partitions/crypto/mbedcrypto/nrf_security_src/libcrypto_service_mbedcrypto.a(psa_crypto.o)
 .text.mbedcrypto__psa_mac_compute
                0x0000000000000000       0x2a secure_fw/partitions/crypto/mbedcrypto/nrf_security_src/libcrypto_service_mbedcrypto.a(psa_crypto.o)
 .text.mbedcrypto__psa_mac_verify
                0x0000000000000000       0x68 secure_fw/partitions/crypto/mbedcrypto/nrf_security_src/libcrypto_service_mbedcrypto.a(psa_crypto.o)
 .text.psa_sign_message_builtin
                0x0000000000000000       0x98 secure_fw/partitions/crypto/mbedcrypto/nrf_security_src/libcrypto_service_mbedcrypto.a(psa_crypto.o)
 .text.mbedcrypto__psa_sign_message
                0x0000000000000000       0x2c secure_fw/partitions/crypto/mbedcrypto/nrf_security_src/libcrypto_service_mbedcrypto.a(psa_crypto.o)
 .text.psa_verify_message_builtin
                0x0000000000000000       0x94 secure_fw/partitions/crypto/mbedcrypto/nrf_security_src/libcrypto_service_mbedcrypto.a(psa_crypto.o)
 .text.mbedcrypto__psa_verify_message
                0x0000000000000000       0x28 secure_fw/partitions/crypto/mbedcrypto/nrf_security_src/libcrypto_service_mbedcrypto.a(psa_crypto.o)
 .text.psa_sign_hash_builtin
                0x0000000000000000        0x6 secure_fw/partitions/crypto/mbedcrypto/nrf_security_src/libcrypto_service_mbedcrypto.a(psa_crypto.o)
 .text.mbedcrypto__psa_sign_hash
                0x0000000000000000       0x2c secure_fw/partitions/crypto/mbedcrypto/nrf_security_src/libcrypto_service_mbedcrypto.a(psa_crypto.o)
 .text.psa_verify_hash_builtin
                0x0000000000000000        0x6 secure_fw/partitions/crypto/mbedcrypto/nrf_security_src/libcrypto_service_mbedcrypto.a(psa_crypto.o)
 .text.mbedcrypto__psa_verify_hash
                0x0000000000000000       0x28 secure_fw/partitions/crypto/mbedcrypto/nrf_security_src/libcrypto_service_mbedcrypto.a(psa_crypto.o)
 .text.mbedcrypto__psa_asymmetric_encrypt
                0x0000000000000000       0xb8 secure_fw/partitions/crypto/mbedcrypto/nrf_security_src/libcrypto_service_mbedcrypto.a(psa_crypto.o)
 .text.mbedcrypto__psa_asymmetric_decrypt
                0x0000000000000000       0xb4 secure_fw/partitions/crypto/mbedcrypto/nrf_security_src/libcrypto_service_mbedcrypto.a(psa_crypto.o)
 .text.mbedcrypto__psa_cipher_abort
                0x0000000000000000       0x1c secure_fw/partitions/crypto/mbedcrypto/nrf_security_src/libcrypto_service_mbedcrypto.a(psa_crypto.o)
 .text.psa_cipher_setup
                0x0000000000000000      0x14c secure_fw/partitions/crypto/mbedcrypto/nrf_security_src/libcrypto_service_mbedcrypto.a(psa_crypto.o)
 .text.mbedcrypto__psa_cipher_encrypt_setup
                0x0000000000000000       0x18 secure_fw/partitions/crypto/mbedcrypto/nrf_security_src/libcrypto_service_mbedcrypto.a(psa_crypto.o)
 .text.mbedcrypto__psa_cipher_decrypt_setup
                0x0000000000000000       0x18 secure_fw/partitions/crypto/mbedcrypto/nrf_security_src/libcrypto_service_mbedcrypto.a(psa_crypto.o)
 .text.mbedcrypto__psa_cipher_set_iv
                0x0000000000000000       0x3c secure_fw/partitions/crypto/mbedcrypto/nrf_security_src/libcrypto_service_mbedcrypto.a(psa_crypto.o)
 .text.mbedcrypto__psa_cipher_update
                0x0000000000000000       0x34 secure_fw/partitions/crypto/mbedcrypto/nrf_security_src/libcrypto_service_mbedcrypto.a(psa_crypto.o)
 .text.mbedcrypto__psa_cipher_finish
                0x0000000000000000       0x38 secure_fw/partitions/crypto/mbedcrypto/nrf_security_src/libcrypto_service_mbedcrypto.a(psa_crypto.o)
 .text.mbedcrypto__psa_cipher_decrypt
                0x0000000000000000      0x150 secure_fw/partitions/crypto/mbedcrypto/nrf_security_src/libcrypto_service_mbedcrypto.a(psa_crypto.o)
 .text.mbedcrypto__psa_aead_encrypt
                0x0000000000000000       0x3a secure_fw/partitions/crypto/mbedcrypto/nrf_security_src/libcrypto_service_mbedcrypto.a(psa_crypto.o)
 .text.mbedcrypto__psa_aead_decrypt
                0x0000000000000000       0x3a secure_fw/partitions/crypto/mbedcrypto/nrf_security_src/libcrypto_service_mbedcrypto.a(psa_crypto.o)
 .text.mbedcrypto__psa_aead_abort
                0x0000000000000000       0x1c secure_fw/partitions/crypto/mbedcrypto/nrf_security_src/libcrypto_service_mbedcrypto.a(psa_crypto.o)
 .text.psa_aead_setup
                0x0000000000000000       0x6a secure_fw/partitions/crypto/mbedcrypto/nrf_security_src/libcrypto_service_mbedcrypto.a(psa_crypto.o)
 .text.mbedcrypto__psa_aead_encrypt_setup
                0x0000000000000000       0x18 secure_fw/partitions/crypto/mbedcrypto/nrf_security_src/libcrypto_service_mbedcrypto.a(psa_crypto.o)
 .text.mbedcrypto__psa_aead_decrypt_setup
                0x0000000000000000       0x18 secure_fw/partitions/crypto/mbedcrypto/nrf_security_src/libcrypto_service_mbedcrypto.a(psa_crypto.o)
 .text.mbedcrypto__psa_aead_set_nonce
                0x0000000000000000       0x24 secure_fw/partitions/crypto/mbedcrypto/nrf_security_src/libcrypto_service_mbedcrypto.a(psa_crypto.o)
 .text.mbedcrypto__psa_aead_set_lengths
                0x0000000000000000       0x38 secure_fw/partitions/crypto/mbedcrypto/nrf_security_src/libcrypto_service_mbedcrypto.a(psa_crypto.o)
 .text.mbedcrypto__psa_aead_update_ad
                0x0000000000000000       0x48 secure_fw/partitions/crypto/mbedcrypto/nrf_security_src/libcrypto_service_mbedcrypto.a(psa_crypto.o)
 .text.mbedcrypto__psa_aead_update
                0x0000000000000000       0x58 secure_fw/partitions/crypto/mbedcrypto/nrf_security_src/libcrypto_service_mbedcrypto.a(psa_crypto.o)
 .text.mbedcrypto__psa_aead_finish
                0x0000000000000000       0x7a secure_fw/partitions/crypto/mbedcrypto/nrf_security_src/libcrypto_service_mbedcrypto.a(psa_crypto.o)
 .text.mbedcrypto__psa_aead_verify
                0x0000000000000000       0x48 secure_fw/partitions/crypto/mbedcrypto/nrf_security_src/libcrypto_service_mbedcrypto.a(psa_crypto.o)
 .text.mbedcrypto__psa_key_derivation_abort
                0x0000000000000000       0x1a secure_fw/partitions/crypto/mbedcrypto/nrf_security_src/libcrypto_service_mbedcrypto.a(psa_crypto.o)
 .text.psa_key_derivation_input_internal
                0x0000000000000000       0x24 secure_fw/partitions/crypto/mbedcrypto/nrf_security_src/libcrypto_service_mbedcrypto.a(psa_crypto.o)
 .text.mbedcrypto__psa_key_derivation_get_capacity
                0x0000000000000000       0x12 secure_fw/partitions/crypto/mbedcrypto/nrf_security_src/libcrypto_service_mbedcrypto.a(psa_crypto.o)
 .text.mbedcrypto__psa_key_derivation_set_capacity
                0x0000000000000000       0x1c secure_fw/partitions/crypto/mbedcrypto/nrf_security_src/libcrypto_service_mbedcrypto.a(psa_crypto.o)
 .text.mbedcrypto__psa_key_derivation_output_bytes
                0x0000000000000000       0x26 secure_fw/partitions/crypto/mbedcrypto/nrf_security_src/libcrypto_service_mbedcrypto.a(psa_crypto.o)
 .text.mbedcrypto__psa_key_derivation_output_key
                0x0000000000000000      0x13e secure_fw/partitions/crypto/mbedcrypto/nrf_security_src/libcrypto_service_mbedcrypto.a(psa_crypto.o)
 .text.mbedcrypto__psa_key_derivation_setup
                0x0000000000000000       0xcc secure_fw/partitions/crypto/mbedcrypto/nrf_security_src/libcrypto_service_mbedcrypto.a(psa_crypto.o)
 .text.mbedcrypto__psa_key_derivation_input_bytes
                0x0000000000000000       0x12 secure_fw/partitions/crypto/mbedcrypto/nrf_security_src/libcrypto_service_mbedcrypto.a(psa_crypto.o)
 .text.mbedcrypto__psa_key_derivation_input_key
                0x0000000000000000       0x66 secure_fw/partitions/crypto/mbedcrypto/nrf_security_src/libcrypto_service_mbedcrypto.a(psa_crypto.o)
 .text.psa_key_derivation_input_integer
                0x0000000000000000       0x24 secure_fw/partitions/crypto/mbedcrypto/nrf_security_src/libcrypto_service_mbedcrypto.a(psa_crypto.o)
 .text.mbedcrypto__psa_key_derivation_key_agreement
                0x0000000000000000       0xd4 secure_fw/partitions/crypto/mbedcrypto/nrf_security_src/libcrypto_service_mbedcrypto.a(psa_crypto.o)
 .text.psa_pake_setup
                0x0000000000000000       0x44 secure_fw/partitions/crypto/mbedcrypto/nrf_security_src/libcrypto_service_mbedcrypto.a(psa_crypto.o)
 .text.psa_pake_output
                0x0000000000000000       0x1c secure_fw/partitions/crypto/mbedcrypto/nrf_security_src/libcrypto_service_mbedcrypto.a(psa_crypto.o)
 .text.psa_pake_input
                0x0000000000000000       0x26 secure_fw/partitions/crypto/mbedcrypto/nrf_security_src/libcrypto_service_mbedcrypto.a(psa_crypto.o)
 .text.psa_pake_abort
                0x0000000000000000       0x1c secure_fw/partitions/crypto/mbedcrypto/nrf_security_src/libcrypto_service_mbedcrypto.a(psa_crypto.o)
 .text.psa_pake_set_role
                0x0000000000000000       0x40 secure_fw/partitions/crypto/mbedcrypto/nrf_security_src/libcrypto_service_mbedcrypto.a(psa_crypto.o)
 .text.psa_pake_set_user
                0x0000000000000000       0x3a secure_fw/partitions/crypto/mbedcrypto/nrf_security_src/libcrypto_service_mbedcrypto.a(psa_crypto.o)
 .text.psa_pake_set_peer
                0x0000000000000000       0x3a secure_fw/partitions/crypto/mbedcrypto/nrf_security_src/libcrypto_service_mbedcrypto.a(psa_crypto.o)
 .text.psa_pake_set_password_key
                0x0000000000000000       0x9e secure_fw/partitions/crypto/mbedcrypto/nrf_security_src/libcrypto_service_mbedcrypto.a(psa_crypto.o)
 .text.psa_pake_get_implicit_key
                0x0000000000000000       0x5c secure_fw/partitions/crypto/mbedcrypto/nrf_security_src/libcrypto_service_mbedcrypto.a(psa_crypto.o)
 .text.mbedcrypto__psa_cipher_generate_iv
                0x0000000000000000       0x74 secure_fw/partitions/crypto/mbedcrypto/nrf_security_src/libcrypto_service_mbedcrypto.a(psa_crypto.o)
 .text.mbedcrypto__psa_cipher_encrypt
                0x0000000000000000      0x160 secure_fw/partitions/crypto/mbedcrypto/nrf_security_src/libcrypto_service_mbedcrypto.a(psa_crypto.o)
 .text.mbedcrypto__psa_aead_generate_nonce
                0x0000000000000000       0xb6 secure_fw/partitions/crypto/mbedcrypto/nrf_security_src/libcrypto_service_mbedcrypto.a(psa_crypto.o)
 .text.mbedcrypto__psa_raw_key_agreement
                0x0000000000000000       0x90 secure_fw/partitions/crypto/mbedcrypto/nrf_security_src/libcrypto_service_mbedcrypto.a(psa_crypto.o)
 .text.mbedtls_psa_get_random
                0x0000000000000000       0x14 secure_fw/partitions/crypto/mbedcrypto/nrf_security_src/libcrypto_service_mbedcrypto.a(psa_crypto.o)
 .text.psa_generate_key_internal
                0x0000000000000000       0x1e secure_fw/partitions/crypto/mbedcrypto/nrf_security_src/libcrypto_service_mbedcrypto.a(psa_crypto.o)
 .text.mbedcrypto__psa_generate_key
                0x0000000000000000      0x154 secure_fw/partitions/crypto/mbedcrypto/nrf_security_src/libcrypto_service_mbedcrypto.a(psa_crypto.o)
 .text.mbedtls_psa_crypto_configure_entropy_sources
                0x0000000000000000        0x4 secure_fw/partitions/crypto/mbedcrypto/nrf_security_src/libcrypto_service_mbedcrypto.a(psa_crypto.o)
 .rodata.CSWTCH.484
                0x0000000000000000       0x20 secure_fw/partitions/crypto/mbedcrypto/nrf_security_src/libcrypto_service_mbedcrypto.a(psa_crypto.o)
 .rodata.CSWTCH.381
                0x0000000000000000       0x10 secure_fw/partitions/crypto/mbedcrypto/nrf_security_src/libcrypto_service_mbedcrypto.a(psa_crypto.o)
 .rodata.mbedtls_psa_random_state
                0x0000000000000000        0x4 secure_fw/partitions/crypto/mbedcrypto/nrf_security_src/libcrypto_service_mbedcrypto.a(psa_crypto.o)
 .text          0x0000000000000000        0x0 secure_fw/partitions/crypto/mbedcrypto/nrf_security_src/libcrypto_service_mbedcrypto.a(psa_crypto_client.o)
 .data          0x0000000000000000        0x0 secure_fw/partitions/crypto/mbedcrypto/nrf_security_src/libcrypto_service_mbedcrypto.a(psa_crypto_client.o)
 .bss           0x0000000000000000        0x0 secure_fw/partitions/crypto/mbedcrypto/nrf_security_src/libcrypto_service_mbedcrypto.a(psa_crypto_client.o)
 .text.mbedcrypto__psa_reset_key_attributes
                0x0000000000000000        0x8 secure_fw/partitions/crypto/mbedcrypto/nrf_security_src/libcrypto_service_mbedcrypto.a(psa_crypto_client.o)
 .debug_info    0x0000000000000000      0x2a5 secure_fw/partitions/crypto/mbedcrypto/nrf_security_src/libcrypto_service_mbedcrypto.a(psa_crypto_client.o)
 .debug_abbrev  0x0000000000000000      0x135 secure_fw/partitions/crypto/mbedcrypto/nrf_security_src/libcrypto_service_mbedcrypto.a(psa_crypto_client.o)
 .debug_loc     0x0000000000000000       0x25 secure_fw/partitions/crypto/mbedcrypto/nrf_security_src/libcrypto_service_mbedcrypto.a(psa_crypto_client.o)
 .debug_aranges
                0x0000000000000000       0x20 secure_fw/partitions/crypto/mbedcrypto/nrf_security_src/libcrypto_service_mbedcrypto.a(psa_crypto_client.o)
 .debug_ranges  0x0000000000000000       0x10 secure_fw/partitions/crypto/mbedcrypto/nrf_security_src/libcrypto_service_mbedcrypto.a(psa_crypto_client.o)
 .debug_line    0x0000000000000000      0x2ce secure_fw/partitions/crypto/mbedcrypto/nrf_security_src/libcrypto_service_mbedcrypto.a(psa_crypto_client.o)
 .debug_str     0x0000000000000000      0x3e2 secure_fw/partitions/crypto/mbedcrypto/nrf_security_src/libcrypto_service_mbedcrypto.a(psa_crypto_client.o)
 .comment       0x0000000000000000       0x21 secure_fw/partitions/crypto/mbedcrypto/nrf_security_src/libcrypto_service_mbedcrypto.a(psa_crypto_client.o)
 .debug_frame   0x0000000000000000       0x20 secure_fw/partitions/crypto/mbedcrypto/nrf_security_src/libcrypto_service_mbedcrypto.a(psa_crypto_client.o)
 .ARM.attributes
                0x0000000000000000       0x32 secure_fw/partitions/crypto/mbedcrypto/nrf_security_src/libcrypto_service_mbedcrypto.a(psa_crypto_client.o)
 .text          0x0000000000000000        0x0 secure_fw/partitions/crypto/mbedcrypto/nrf_security_src/libcrypto_service_mbedcrypto.a(psa_crypto_slot_management.o)
 .data          0x0000000000000000        0x0 secure_fw/partitions/crypto/mbedcrypto/nrf_security_src/libcrypto_service_mbedcrypto.a(psa_crypto_slot_management.o)
 .bss           0x0000000000000000        0x0 secure_fw/partitions/crypto/mbedcrypto/nrf_security_src/libcrypto_service_mbedcrypto.a(psa_crypto_slot_management.o)
 .text.psa_is_valid_key_id
                0x0000000000000000       0x2c secure_fw/partitions/crypto/mbedcrypto/nrf_security_src/libcrypto_service_mbedcrypto.a(psa_crypto_slot_management.o)
 .text.psa_get_and_lock_key_slot_in_memory
                0x0000000000000000       0x84 secure_fw/partitions/crypto/mbedcrypto/nrf_security_src/libcrypto_service_mbedcrypto.a(psa_crypto_slot_management.o)
 .text.psa_get_empty_key_slot
                0x0000000000000000       0x84 secure_fw/partitions/crypto/mbedcrypto/nrf_security_src/libcrypto_service_mbedcrypto.a(psa_crypto_slot_management.o)
 .text.psa_get_and_lock_key_slot
                0x0000000000000000      0x154 secure_fw/partitions/crypto/mbedcrypto/nrf_security_src/libcrypto_service_mbedcrypto.a(psa_crypto_slot_management.o)
 .text.psa_unlock_key_slot
                0x0000000000000000       0x14 secure_fw/partitions/crypto/mbedcrypto/nrf_security_src/libcrypto_service_mbedcrypto.a(psa_crypto_slot_management.o)
 .text.psa_validate_key_location
                0x0000000000000000        0x4 secure_fw/partitions/crypto/mbedcrypto/nrf_security_src/libcrypto_service_mbedcrypto.a(psa_crypto_slot_management.o)
 .text.psa_validate_key_persistence
                0x0000000000000000        0xe secure_fw/partitions/crypto/mbedcrypto/nrf_security_src/libcrypto_service_mbedcrypto.a(psa_crypto_slot_management.o)
 .text.mbedcrypto__psa_open_key
                0x0000000000000000       0x42 secure_fw/partitions/crypto/mbedcrypto/nrf_security_src/libcrypto_service_mbedcrypto.a(psa_crypto_slot_management.o)
 .text.mbedcrypto__psa_close_key
                0x0000000000000000       0x42 secure_fw/partitions/crypto/mbedcrypto/nrf_security_src/libcrypto_service_mbedcrypto.a(psa_crypto_slot_management.o)
 .text.mbedcrypto__psa_purge_key
                0x0000000000000000       0x3a secure_fw/partitions/crypto/mbedcrypto/nrf_security_src/libcrypto_service_mbedcrypto.a(psa_crypto_slot_management.o)
 .text.mbedtls_psa_get_stats
                0x0000000000000000       0x68 secure_fw/partitions/crypto/mbedcrypto/nrf_security_src/libcrypto_service_mbedcrypto.a(psa_crypto_slot_management.o)
 .text          0x0000000000000000        0x0 secure_fw/partitions/crypto/mbedcrypto/nrf_security_src/libcrypto_service_mbedcrypto.a(psa_crypto_driver_wrappers.o)
 .data          0x0000000000000000        0x0 secure_fw/partitions/crypto/mbedcrypto/nrf_security_src/libcrypto_service_mbedcrypto.a(psa_crypto_driver_wrappers.o)
 .bss           0x0000000000000000        0x0 secure_fw/partitions/crypto/mbedcrypto/nrf_security_src/libcrypto_service_mbedcrypto.a(psa_crypto_driver_wrappers.o)
 .text.psa_driver_wrapper_sign_message
                0x0000000000000000        0x4 secure_fw/partitions/crypto/mbedcrypto/nrf_security_src/libcrypto_service_mbedcrypto.a(psa_crypto_driver_wrappers.o)
 .text.psa_driver_wrapper_verify_message
                0x0000000000000000        0x4 secure_fw/partitions/crypto/mbedcrypto/nrf_security_src/libcrypto_service_mbedcrypto.a(psa_crypto_driver_wrappers.o)
 .text.psa_driver_wrapper_sign_hash
                0x0000000000000000       0x20 secure_fw/partitions/crypto/mbedcrypto/nrf_security_src/libcrypto_service_mbedcrypto.a(psa_crypto_driver_wrappers.o)
 .text.psa_driver_wrapper_verify_hash
                0x0000000000000000       0x20 secure_fw/partitions/crypto/mbedcrypto/nrf_security_src/libcrypto_service_mbedcrypto.a(psa_crypto_driver_wrappers.o)
 .text.psa_driver_wrapper_get_key_buffer_size_from_key_data
                0x0000000000000000        0xa secure_fw/partitions/crypto/mbedcrypto/nrf_security_src/libcrypto_service_mbedcrypto.a(psa_crypto_driver_wrappers.o)
 .text.psa_driver_wrapper_get_key_buffer_size
                0x0000000000000000       0x30 secure_fw/partitions/crypto/mbedcrypto/nrf_security_src/libcrypto_service_mbedcrypto.a(psa_crypto_driver_wrappers.o)
 .text.psa_driver_wrapper_generate_key
                0x0000000000000000       0x20 secure_fw/partitions/crypto/mbedcrypto/nrf_security_src/libcrypto_service_mbedcrypto.a(psa_crypto_driver_wrappers.o)
 .text.psa_driver_wrapper_import_key
                0x0000000000000000       0x30 secure_fw/partitions/crypto/mbedcrypto/nrf_security_src/libcrypto_service_mbedcrypto.a(psa_crypto_driver_wrappers.o)
 .text.psa_driver_wrapper_export_key
                0x0000000000000000       0x28 secure_fw/partitions/crypto/mbedcrypto/nrf_security_src/libcrypto_service_mbedcrypto.a(psa_crypto_driver_wrappers.o)
 .text.psa_driver_wrapper_export_public_key
                0x0000000000000000       0x28 secure_fw/partitions/crypto/mbedcrypto/nrf_security_src/libcrypto_service_mbedcrypto.a(psa_crypto_driver_wrappers.o)
 .text.psa_driver_wrapper_get_builtin_key
                0x0000000000000000       0x20 secure_fw/partitions/crypto/mbedcrypto/nrf_security_src/libcrypto_service_mbedcrypto.a(psa_crypto_driver_wrappers.o)
 .text.psa_driver_wrapper_copy_key
                0x0000000000000000        0x6 secure_fw/partitions/crypto/mbedcrypto/nrf_security_src/libcrypto_service_mbedcrypto.a(psa_crypto_driver_wrappers.o)
 .text.psa_driver_wrapper_cipher_encrypt
                0x0000000000000000       0x20 secure_fw/partitions/crypto/mbedcrypto/nrf_security_src/libcrypto_service_mbedcrypto.a(psa_crypto_driver_wrappers.o)
 .text.psa_driver_wrapper_cipher_decrypt
                0x0000000000000000       0x20 secure_fw/partitions/crypto/mbedcrypto/nrf_security_src/libcrypto_service_mbedcrypto.a(psa_crypto_driver_wrappers.o)
 .text.psa_driver_wrapper_cipher_encrypt_setup
                0x0000000000000000       0x20 secure_fw/partitions/crypto/mbedcrypto/nrf_security_src/libcrypto_service_mbedcrypto.a(psa_crypto_driver_wrappers.o)
 .text.psa_driver_wrapper_cipher_decrypt_setup
                0x0000000000000000       0x20 secure_fw/partitions/crypto/mbedcrypto/nrf_security_src/libcrypto_service_mbedcrypto.a(psa_crypto_driver_wrappers.o)
 .text.psa_driver_wrapper_cipher_set_iv
                0x0000000000000000        0x6 secure_fw/partitions/crypto/mbedcrypto/nrf_security_src/libcrypto_service_mbedcrypto.a(psa_crypto_driver_wrappers.o)
 .text.psa_driver_wrapper_cipher_update
                0x0000000000000000        0x6 secure_fw/partitions/crypto/mbedcrypto/nrf_security_src/libcrypto_service_mbedcrypto.a(psa_crypto_driver_wrappers.o)
 .text.psa_driver_wrapper_cipher_finish
                0x0000000000000000        0x6 secure_fw/partitions/crypto/mbedcrypto/nrf_security_src/libcrypto_service_mbedcrypto.a(psa_crypto_driver_wrappers.o)
 .text.psa_driver_wrapper_cipher_abort
                0x0000000000000000        0x4 secure_fw/partitions/crypto/mbedcrypto/nrf_security_src/libcrypto_service_mbedcrypto.a(psa_crypto_driver_wrappers.o)
 .text.psa_driver_wrapper_hash_compute
                0x0000000000000000        0x6 secure_fw/partitions/crypto/mbedcrypto/nrf_security_src/libcrypto_service_mbedcrypto.a(psa_crypto_driver_wrappers.o)
 .text.psa_driver_wrapper_hash_setup
                0x0000000000000000        0x6 secure_fw/partitions/crypto/mbedcrypto/nrf_security_src/libcrypto_service_mbedcrypto.a(psa_crypto_driver_wrappers.o)
 .text.psa_driver_wrapper_hash_clone
                0x0000000000000000        0x6 secure_fw/partitions/crypto/mbedcrypto/nrf_security_src/libcrypto_service_mbedcrypto.a(psa_crypto_driver_wrappers.o)
 .text.psa_driver_wrapper_hash_update
                0x0000000000000000        0x6 secure_fw/partitions/crypto/mbedcrypto/nrf_security_src/libcrypto_service_mbedcrypto.a(psa_crypto_driver_wrappers.o)
 .text.psa_driver_wrapper_hash_finish
                0x0000000000000000        0x6 secure_fw/partitions/crypto/mbedcrypto/nrf_security_src/libcrypto_service_mbedcrypto.a(psa_crypto_driver_wrappers.o)
 .text.psa_driver_wrapper_hash_abort
                0x0000000000000000        0x4 secure_fw/partitions/crypto/mbedcrypto/nrf_security_src/libcrypto_service_mbedcrypto.a(psa_crypto_driver_wrappers.o)
 .text.psa_driver_wrapper_aead_encrypt
                0x0000000000000000       0x20 secure_fw/partitions/crypto/mbedcrypto/nrf_security_src/libcrypto_service_mbedcrypto.a(psa_crypto_driver_wrappers.o)
 .text.psa_driver_wrapper_aead_decrypt
                0x0000000000000000       0x20 secure_fw/partitions/crypto/mbedcrypto/nrf_security_src/libcrypto_service_mbedcrypto.a(psa_crypto_driver_wrappers.o)
 .text.psa_driver_wrapper_aead_encrypt_setup
                0x0000000000000000       0x20 secure_fw/partitions/crypto/mbedcrypto/nrf_security_src/libcrypto_service_mbedcrypto.a(psa_crypto_driver_wrappers.o)
 .text.psa_driver_wrapper_aead_decrypt_setup
                0x0000000000000000       0x20 secure_fw/partitions/crypto/mbedcrypto/nrf_security_src/libcrypto_service_mbedcrypto.a(psa_crypto_driver_wrappers.o)
 .text.psa_driver_wrapper_aead_set_nonce
                0x0000000000000000        0x6 secure_fw/partitions/crypto/mbedcrypto/nrf_security_src/libcrypto_service_mbedcrypto.a(psa_crypto_driver_wrappers.o)
 .text.psa_driver_wrapper_aead_set_lengths
                0x0000000000000000        0x6 secure_fw/partitions/crypto/mbedcrypto/nrf_security_src/libcrypto_service_mbedcrypto.a(psa_crypto_driver_wrappers.o)
 .text.psa_driver_wrapper_aead_update_ad
                0x0000000000000000        0x6 secure_fw/partitions/crypto/mbedcrypto/nrf_security_src/libcrypto_service_mbedcrypto.a(psa_crypto_driver_wrappers.o)
 .text.psa_driver_wrapper_aead_update
                0x0000000000000000        0x6 secure_fw/partitions/crypto/mbedcrypto/nrf_security_src/libcrypto_service_mbedcrypto.a(psa_crypto_driver_wrappers.o)
 .text.psa_driver_wrapper_aead_finish
                0x0000000000000000        0x6 secure_fw/partitions/crypto/mbedcrypto/nrf_security_src/libcrypto_service_mbedcrypto.a(psa_crypto_driver_wrappers.o)
 .text.psa_driver_wrapper_aead_verify
                0x0000000000000000        0x6 secure_fw/partitions/crypto/mbedcrypto/nrf_security_src/libcrypto_service_mbedcrypto.a(psa_crypto_driver_wrappers.o)
 .text.psa_driver_wrapper_aead_abort
                0x0000000000000000        0x4 secure_fw/partitions/crypto/mbedcrypto/nrf_security_src/libcrypto_service_mbedcrypto.a(psa_crypto_driver_wrappers.o)
 .text.psa_driver_wrapper_mac_compute
                0x0000000000000000       0x34 secure_fw/partitions/crypto/mbedcrypto/nrf_security_src/libcrypto_service_mbedcrypto.a(psa_crypto_driver_wrappers.o)
 .text.psa_driver_wrapper_mac_sign_setup
                0x0000000000000000       0x34 secure_fw/partitions/crypto/mbedcrypto/nrf_security_src/libcrypto_service_mbedcrypto.a(psa_crypto_driver_wrappers.o)
 .text.psa_driver_wrapper_mac_verify_setup
                0x0000000000000000        0x4 secure_fw/partitions/crypto/mbedcrypto/nrf_security_src/libcrypto_service_mbedcrypto.a(psa_crypto_driver_wrappers.o)
 .text.psa_driver_wrapper_mac_update
                0x0000000000000000        0x6 secure_fw/partitions/crypto/mbedcrypto/nrf_security_src/libcrypto_service_mbedcrypto.a(psa_crypto_driver_wrappers.o)
 .text.psa_driver_wrapper_mac_sign_finish
                0x0000000000000000        0x6 secure_fw/partitions/crypto/mbedcrypto/nrf_security_src/libcrypto_service_mbedcrypto.a(psa_crypto_driver_wrappers.o)
 .text.psa_driver_wrapper_mac_verify_finish
                0x0000000000000000        0x6 secure_fw/partitions/crypto/mbedcrypto/nrf_security_src/libcrypto_service_mbedcrypto.a(psa_crypto_driver_wrappers.o)
 .text.psa_driver_wrapper_mac_abort
                0x0000000000000000        0x4 secure_fw/partitions/crypto/mbedcrypto/nrf_security_src/libcrypto_service_mbedcrypto.a(psa_crypto_driver_wrappers.o)
 .text.psa_driver_wrapper_key_derivation_setup
                0x0000000000000000        0x6 secure_fw/partitions/crypto/mbedcrypto/nrf_security_src/libcrypto_service_mbedcrypto.a(psa_crypto_driver_wrappers.o)
 .text.psa_driver_wrapper_key_derivation_set_capacity
                0x0000000000000000        0x6 secure_fw/partitions/crypto/mbedcrypto/nrf_security_src/libcrypto_service_mbedcrypto.a(psa_crypto_driver_wrappers.o)
 .text.psa_driver_wrapper_key_derivation_input_bytes
                0x0000000000000000        0x6 secure_fw/partitions/crypto/mbedcrypto/nrf_security_src/libcrypto_service_mbedcrypto.a(psa_crypto_driver_wrappers.o)
 .text.psa_driver_wrapper_key_derivation_input_integer
                0x0000000000000000        0x6 secure_fw/partitions/crypto/mbedcrypto/nrf_security_src/libcrypto_service_mbedcrypto.a(psa_crypto_driver_wrappers.o)
 .text.psa_driver_wrapper_key_derivation_output_bytes
                0x0000000000000000        0x6 secure_fw/partitions/crypto/mbedcrypto/nrf_security_src/libcrypto_service_mbedcrypto.a(psa_crypto_driver_wrappers.o)
 .text.psa_driver_wrapper_key_derivation_abort
                0x0000000000000000        0x4 secure_fw/partitions/crypto/mbedcrypto/nrf_security_src/libcrypto_service_mbedcrypto.a(psa_crypto_driver_wrappers.o)
 .text.psa_driver_wrapper_key_agreement
                0x0000000000000000       0x20 secure_fw/partitions/crypto/mbedcrypto/nrf_security_src/libcrypto_service_mbedcrypto.a(psa_crypto_driver_wrappers.o)
 .text.psa_driver_wrapper_pake_setup
                0x0000000000000000        0x6 secure_fw/partitions/crypto/mbedcrypto/nrf_security_src/libcrypto_service_mbedcrypto.a(psa_crypto_driver_wrappers.o)
 .text.psa_driver_wrapper_pake_set_password_key
                0x0000000000000000        0x6 secure_fw/partitions/crypto/mbedcrypto/nrf_security_src/libcrypto_service_mbedcrypto.a(psa_crypto_driver_wrappers.o)
 .text.psa_driver_wrapper_pake_set_user
                0x0000000000000000        0x6 secure_fw/partitions/crypto/mbedcrypto/nrf_security_src/libcrypto_service_mbedcrypto.a(psa_crypto_driver_wrappers.o)
 .text.psa_driver_wrapper_pake_set_peer
                0x0000000000000000        0x6 secure_fw/partitions/crypto/mbedcrypto/nrf_security_src/libcrypto_service_mbedcrypto.a(psa_crypto_driver_wrappers.o)
 .text.psa_driver_wrapper_pake_set_role
                0x0000000000000000        0x6 secure_fw/partitions/crypto/mbedcrypto/nrf_security_src/libcrypto_service_mbedcrypto.a(psa_crypto_driver_wrappers.o)
 .text.psa_driver_wrapper_pake_output
                0x0000000000000000        0x6 secure_fw/partitions/crypto/mbedcrypto/nrf_security_src/libcrypto_service_mbedcrypto.a(psa_crypto_driver_wrappers.o)
 .text.psa_driver_wrapper_pake_input
                0x0000000000000000        0x6 secure_fw/partitions/crypto/mbedcrypto/nrf_security_src/libcrypto_service_mbedcrypto.a(psa_crypto_driver_wrappers.o)
 .text.psa_driver_wrapper_pake_get_implicit_key
                0x0000000000000000        0x6 secure_fw/partitions/crypto/mbedcrypto/nrf_security_src/libcrypto_service_mbedcrypto.a(psa_crypto_driver_wrappers.o)
 .text.psa_driver_wrapper_pake_abort
                0x0000000000000000        0x4 secure_fw/partitions/crypto/mbedcrypto/nrf_security_src/libcrypto_service_mbedcrypto.a(psa_crypto_driver_wrappers.o)
 .text.psa_driver_wrapper_asymmetric_encrypt
                0x0000000000000000       0x20 secure_fw/partitions/crypto/mbedcrypto/nrf_security_src/libcrypto_service_mbedcrypto.a(psa_crypto_driver_wrappers.o)
 .text.psa_driver_wrapper_asymmetric_decrypt
                0x0000000000000000       0x20 secure_fw/partitions/crypto/mbedcrypto/nrf_security_src/libcrypto_service_mbedcrypto.a(psa_crypto_driver_wrappers.o)
 .text.psa_driver_wrapper_get_entropy
                0x0000000000000000        0xa secure_fw/partitions/crypto/mbedcrypto/nrf_security_src/libcrypto_service_mbedcrypto.a(psa_crypto_driver_wrappers.o)
 .text          0x0000000000000000        0x0 secure_fw/partitions/platform/libtfm_psa_rot_partition_platform.a(platform_sp.o)
 .data          0x0000000000000000        0x0 secure_fw/partitions/platform/libtfm_psa_rot_partition_platform.a(platform_sp.o)
 .bss           0x0000000000000000        0x0 secure_fw/partitions/platform/libtfm_psa_rot_partition_platform.a(platform_sp.o)
 .text.platform_sp_system_reset
                0x0000000000000000        0xa secure_fw/partitions/platform/libtfm_psa_rot_partition_platform.a(platform_sp.o)
 .text          0x0000000000000000        0x0 secure_fw/partitions/platform/libtfm_psa_rot_partition_platform.a(intermedia_tfm_platform.o)
 .data          0x0000000000000000        0x0 secure_fw/partitions/platform/libtfm_psa_rot_partition_platform.a(intermedia_tfm_platform.o)
 .bss           0x0000000000000000        0x0 secure_fw/partitions/platform/libtfm_psa_rot_partition_platform.a(intermedia_tfm_platform.o)
 .text          0x0000000000000000        0x0 platform/libplatform_s.a(mpu_armv8m_drv.o)
 .data          0x0000000000000000        0x0 platform/libplatform_s.a(mpu_armv8m_drv.o)
 .bss           0x0000000000000000        0x0 platform/libplatform_s.a(mpu_armv8m_drv.o)
 .text.mpu_armv8m_disable
                0x0000000000000000        0x8 platform/libplatform_s.a(mpu_armv8m_drv.o)
 .text          0x0000000000000000        0x0 platform/libplatform_s.a(spu.o)
 .data          0x0000000000000000        0x0 platform/libplatform_s.a(spu.o)
 .bss           0x0000000000000000        0x0 platform/libplatform_s.a(spu.o)
 .text.spu_peripheral_config_secure
                0x0000000000000000       0x1c platform/libplatform_s.a(spu.o)
 .text          0x0000000000000000        0x0 platform/libplatform_s.a(tfm_hal_platform.o)
 .data          0x0000000000000000        0x0 platform/libplatform_s.a(tfm_hal_platform.o)
 .bss           0x0000000000000000        0x0 platform/libplatform_s.a(tfm_hal_platform.o)
 .text          0x0000000000000000        0x0 platform/libplatform_s.a(dummy_otp.o)
 .data          0x0000000000000000        0x0 platform/libplatform_s.a(dummy_otp.o)
 .bss           0x0000000000000000        0x0 platform/libplatform_s.a(dummy_otp.o)
 .text.tfm_plat_otp_read
                0x0000000000000000        0x6 platform/libplatform_s.a(dummy_otp.o)
 .text.tfm_plat_otp_write
                0x0000000000000000        0x6 platform/libplatform_s.a(dummy_otp.o)
 .text.tfm_plat_otp_get_size
                0x0000000000000000        0x6 platform/libplatform_s.a(dummy_otp.o)
 .text          0x0000000000000000        0x0 platform/libplatform_s.a(dummy_provisioning.o)
 .data          0x0000000000000000        0x0 platform/libplatform_s.a(dummy_provisioning.o)
 .bss           0x0000000000000000        0x0 platform/libplatform_s.a(dummy_provisioning.o)
 .text          0x0000000000000000        0x0 platform/libplatform_s.a(tfm_platform_system.o)
 .data          0x0000000000000000        0x0 platform/libplatform_s.a(tfm_platform_system.o)
 .bss           0x0000000000000000        0x0 platform/libplatform_s.a(tfm_platform_system.o)
 .text          0x0000000000000000        0x0 platform/libplatform_s.a(tfm_hal_reset_halt.o)
 .data          0x0000000000000000        0x0 platform/libplatform_s.a(tfm_hal_reset_halt.o)
 .bss           0x0000000000000000        0x0 platform/libplatform_s.a(tfm_hal_reset_halt.o)
 .text.tfm_hal_system_halt
                0x0000000000000000        0x6 platform/libplatform_s.a(tfm_hal_reset_halt.o)
 .text          0x0000000000000000        0x0 platform/libplatform_s.a(tfm_platform_hal_ioctl.o)
 .data          0x0000000000000000        0x0 platform/libplatform_s.a(tfm_platform_hal_ioctl.o)
 .bss           0x0000000000000000        0x0 platform/libplatform_s.a(tfm_platform_hal_ioctl.o)
 .text          0x0000000000000000        0x0 secure_fw/partitions/lib/runtime/libtfm_sprt.a(crt_memcpy.o)
 .data          0x0000000000000000        0x0 secure_fw/partitions/lib/runtime/libtfm_sprt.a(crt_memcpy.o)
 .bss           0x0000000000000000        0x0 secure_fw/partitions/lib/runtime/libtfm_sprt.a(crt_memcpy.o)
 .text          0x0000000000000000        0x0 secure_fw/partitions/lib/runtime/libtfm_sprt.a(sfn_common_thread.o)
 .data          0x0000000000000000        0x0 secure_fw/partitions/lib/runtime/libtfm_sprt.a(sfn_common_thread.o)
 .bss           0x0000000000000000        0x0 secure_fw/partitions/lib/runtime/libtfm_sprt.a(sfn_common_thread.o)
 .text          0x0000000000000000        0x0 secure_fw/partitions/lib/runtime/libtfm_sprt.a(psa_interface_cross.o)
 .data          0x0000000000000000        0x0 secure_fw/partitions/lib/runtime/libtfm_sprt.a(psa_interface_cross.o)
 .bss           0x0000000000000000        0x0 secure_fw/partitions/lib/runtime/libtfm_sprt.a(psa_interface_cross.o)
 .text          0x0000000000000000        0x0 secure_fw/partitions/lib/runtime/libtfm_sprt.a(dummy_tfm_sp_log_raw.o)
 .data          0x0000000000000000        0x0 secure_fw/partitions/lib/runtime/libtfm_sprt.a(dummy_tfm_sp_log_raw.o)
 .bss           0x0000000000000000        0x0 secure_fw/partitions/lib/runtime/libtfm_sprt.a(dummy_tfm_sp_log_raw.o)
 .text.printf   0x0000000000000000        0x8 secure_fw/partitions/lib/runtime/libtfm_sprt.a(dummy_tfm_sp_log_raw.o)
 .debug_info    0x0000000000000000       0x71 secure_fw/partitions/lib/runtime/libtfm_sprt.a(dummy_tfm_sp_log_raw.o)
 .debug_abbrev  0x0000000000000000       0x6e secure_fw/partitions/lib/runtime/libtfm_sprt.a(dummy_tfm_sp_log_raw.o)
 .debug_aranges
                0x0000000000000000       0x20 secure_fw/partitions/lib/runtime/libtfm_sprt.a(dummy_tfm_sp_log_raw.o)
 .debug_ranges  0x0000000000000000       0x10 secure_fw/partitions/lib/runtime/libtfm_sprt.a(dummy_tfm_sp_log_raw.o)
 .debug_line    0x0000000000000000       0x8a secure_fw/partitions/lib/runtime/libtfm_sprt.a(dummy_tfm_sp_log_raw.o)
 .debug_str     0x0000000000000000      0x1b8 secure_fw/partitions/lib/runtime/libtfm_sprt.a(dummy_tfm_sp_log_raw.o)
 .comment       0x0000000000000000       0x21 secure_fw/partitions/lib/runtime/libtfm_sprt.a(dummy_tfm_sp_log_raw.o)
 .debug_frame   0x0000000000000000       0x34 secure_fw/partitions/lib/runtime/libtfm_sprt.a(dummy_tfm_sp_log_raw.o)
 .ARM.attributes
                0x0000000000000000       0x32 secure_fw/partitions/lib/runtime/libtfm_sprt.a(dummy_tfm_sp_log_raw.o)
 .text          0x0000000000000000        0x0 secure_fw/spm/libtfm_spm.a(psa_call_api.o)
 .data          0x0000000000000000        0x0 secure_fw/spm/libtfm_spm.a(psa_call_api.o)
 .bss           0x0000000000000000        0x0 secure_fw/spm/libtfm_spm.a(psa_call_api.o)
 .text          0x0000000000000000        0x0 secure_fw/spm/libtfm_spm.a(psa_version_api.o)
 .data          0x0000000000000000        0x0 secure_fw/spm/libtfm_spm.a(psa_version_api.o)
 .bss           0x0000000000000000        0x0 secure_fw/spm/libtfm_spm.a(psa_version_api.o)
 .text          0x0000000000000000        0x0 secure_fw/spm/libtfm_spm.a(psa_read_write_skip_api.o)
 .data          0x0000000000000000        0x0 secure_fw/spm/libtfm_spm.a(psa_read_write_skip_api.o)
 .bss           0x0000000000000000        0x0 secure_fw/spm/libtfm_spm.a(psa_read_write_skip_api.o)
 .text          0x0000000000000000        0x0 secure_fw/partitions/crypto/libtfm_psa_rot_partition_crypto.a(tfm_builtin_key_loader.o)
 .data          0x0000000000000000        0x0 secure_fw/partitions/crypto/libtfm_psa_rot_partition_crypto.a(tfm_builtin_key_loader.o)
 .bss           0x0000000000000000        0x0 secure_fw/partitions/crypto/libtfm_psa_rot_partition_crypto.a(tfm_builtin_key_loader.o)
 .text.psa_set_key_usage_flags
                0x0000000000000000       0x14 secure_fw/partitions/crypto/libtfm_psa_rot_partition_crypto.a(tfm_builtin_key_loader.o)
 .text.tfm_builtin_key_loader_get_key_buffer_size
                0x0000000000000000       0x5c secure_fw/partitions/crypto/libtfm_psa_rot_partition_crypto.a(tfm_builtin_key_loader.o)
 .text.tfm_builtin_key_loader_get_builtin_key
                0x0000000000000000      0x1f4 secure_fw/partitions/crypto/libtfm_psa_rot_partition_crypto.a(tfm_builtin_key_loader.o)
 .text          0x0000000000000000        0x0 /home/jordan/ncs/v2.5.1/nrfxlib/crypto/nrf_cc312_platform/lib/cortex-m33/soft-float/no-interrupts/libnrf_cc312_platform_0.9.18.a(nrf_cc3xx_platform.c.obj)
 .data          0x0000000000000000        0x0 /home/jordan/ncs/v2.5.1/nrfxlib/crypto/nrf_cc312_platform/lib/cortex-m33/soft-float/no-interrupts/libnrf_cc312_platform_0.9.18.a(nrf_cc3xx_platform.c.obj)
 .bss           0x0000000000000000        0x0 /home/jordan/ncs/v2.5.1/nrfxlib/crypto/nrf_cc312_platform/lib/cortex-m33/soft-float/no-interrupts/libnrf_cc312_platform_0.9.18.a(nrf_cc3xx_platform.c.obj)
 .text.nrf_cc3xx_platform_init_hmac_drbg
                0x0000000000000000       0x44 /home/jordan/ncs/v2.5.1/nrfxlib/crypto/nrf_cc312_platform/lib/cortex-m33/soft-float/no-interrupts/libnrf_cc312_platform_0.9.18.a(nrf_cc3xx_platform.c.obj)
 .text.nrf_cc3xx_platform_init_no_rng
                0x0000000000000000       0x38 /home/jordan/ncs/v2.5.1/nrfxlib/crypto/nrf_cc312_platform/lib/cortex-m33/soft-float/no-interrupts/libnrf_cc312_platform_0.9.18.a(nrf_cc3xx_platform.c.obj)
 .text.nrf_cc3xx_platform_deinit
                0x0000000000000000       0x1c /home/jordan/ncs/v2.5.1/nrfxlib/crypto/nrf_cc312_platform/lib/cortex-m33/soft-float/no-interrupts/libnrf_cc312_platform_0.9.18.a(nrf_cc3xx_platform.c.obj)
 .text.nrf_cc3xx_platform_is_initialized
                0x0000000000000000       0x14 /home/jordan/ncs/v2.5.1/nrfxlib/crypto/nrf_cc312_platform/lib/cortex-m33/soft-float/no-interrupts/libnrf_cc312_platform_0.9.18.a(nrf_cc3xx_platform.c.obj)
 .text.nrf_cc3xx_platform_rng_is_initialized
                0x0000000000000000       0x14 /home/jordan/ncs/v2.5.1/nrfxlib/crypto/nrf_cc312_platform/lib/cortex-m33/soft-float/no-interrupts/libnrf_cc312_platform_0.9.18.a(nrf_cc3xx_platform.c.obj)
 .text.nrf_cc3xx_platform_get_nonce_seed
                0x0000000000000000       0x28 /home/jordan/ncs/v2.5.1/nrfxlib/crypto/nrf_cc312_platform/lib/cortex-m33/soft-float/no-interrupts/libnrf_cc312_platform_0.9.18.a(nrf_cc3xx_platform.c.obj)
 .text.nrf_cc3xx_platform_get_boot_seed
                0x0000000000000000       0x28 /home/jordan/ncs/v2.5.1/nrfxlib/crypto/nrf_cc312_platform/lib/cortex-m33/soft-float/no-interrupts/libnrf_cc312_platform_0.9.18.a(nrf_cc3xx_platform.c.obj)
 .text          0x0000000000000000        0x0 /home/jordan/ncs/v2.5.1/nrfxlib/crypto/nrf_cc312_platform/lib/cortex-m33/soft-float/no-interrupts/libnrf_cc312_platform_0.9.18.a(nrf_cc3xx_platform_ctr_drbg.c.obj)
 .data          0x0000000000000000        0x0 /home/jordan/ncs/v2.5.1/nrfxlib/crypto/nrf_cc312_platform/lib/cortex-m33/soft-float/no-interrupts/libnrf_cc312_platform_0.9.18.a(nrf_cc3xx_platform_ctr_drbg.c.obj)
 .bss           0x0000000000000000        0x0 /home/jordan/ncs/v2.5.1/nrfxlib/crypto/nrf_cc312_platform/lib/cortex-m33/soft-float/no-interrupts/libnrf_cc312_platform_0.9.18.a(nrf_cc3xx_platform_ctr_drbg.c.obj)
 .text.nrf_cc3xx_platform_ctr_drbg_free
                0x0000000000000000       0x2c /home/jordan/ncs/v2.5.1/nrfxlib/crypto/nrf_cc312_platform/lib/cortex-m33/soft-float/no-interrupts/libnrf_cc312_platform_0.9.18.a(nrf_cc3xx_platform_ctr_drbg.c.obj)
 .text.nrf_cc3xx_platform_ctr_drbg_set_pr
                0x0000000000000000       0x28 /home/jordan/ncs/v2.5.1/nrfxlib/crypto/nrf_cc312_platform/lib/cortex-m33/soft-float/no-interrupts/libnrf_cc312_platform_0.9.18.a(nrf_cc3xx_platform_ctr_drbg.c.obj)
 .text.nrf_cc3xx_platform_ctr_drbg_set_reseed_interval
                0x0000000000000000       0x30 /home/jordan/ncs/v2.5.1/nrfxlib/crypto/nrf_cc312_platform/lib/cortex-m33/soft-float/no-interrupts/libnrf_cc312_platform_0.9.18.a(nrf_cc3xx_platform_ctr_drbg.c.obj)
 .text.nrf_cc3xx_platform_ctr_drbg_reseed
                0x0000000000000000       0x38 /home/jordan/ncs/v2.5.1/nrfxlib/crypto/nrf_cc312_platform/lib/cortex-m33/soft-float/no-interrupts/libnrf_cc312_platform_0.9.18.a(nrf_cc3xx_platform_ctr_drbg.c.obj)
 .text.nrf_cc3xx_platform_ctr_drbg_get_with_add
                0x0000000000000000       0x58 /home/jordan/ncs/v2.5.1/nrfxlib/crypto/nrf_cc312_platform/lib/cortex-m33/soft-float/no-interrupts/libnrf_cc312_platform_0.9.18.a(nrf_cc3xx_platform_ctr_drbg.c.obj)
 .text          0x0000000000000000        0x0 /home/jordan/ncs/v2.5.1/nrfxlib/crypto/nrf_cc312_platform/lib/cortex-m33/soft-float/no-interrupts/libnrf_cc312_platform_0.9.18.a(mbedtls_common.c.obj)
 .data          0x0000000000000000        0x0 /home/jordan/ncs/v2.5.1/nrfxlib/crypto/nrf_cc312_platform/lib/cortex-m33/soft-float/no-interrupts/libnrf_cc312_platform_0.9.18.a(mbedtls_common.c.obj)
 .bss           0x0000000000000000        0x0 /home/jordan/ncs/v2.5.1/nrfxlib/crypto/nrf_cc312_platform/lib/cortex-m33/soft-float/no-interrupts/libnrf_cc312_platform_0.9.18.a(mbedtls_common.c.obj)
 .text          0x0000000000000000        0x0 /home/jordan/ncs/v2.5.1/nrfxlib/crypto/nrf_cc312_platform/lib/cortex-m33/soft-float/no-interrupts/libnrf_cc312_platform_0.9.18.a(ctr_drbg.c.obj)
 .data          0x0000000000000000        0x0 /home/jordan/ncs/v2.5.1/nrfxlib/crypto/nrf_cc312_platform/lib/cortex-m33/soft-float/no-interrupts/libnrf_cc312_platform_0.9.18.a(ctr_drbg.c.obj)
 .bss           0x0000000000000000        0x0 /home/jordan/ncs/v2.5.1/nrfxlib/crypto/nrf_cc312_platform/lib/cortex-m33/soft-float/no-interrupts/libnrf_cc312_platform_0.9.18.a(ctr_drbg.c.obj)
 .text.cc_mbedtls_ctr_drbg_free
                0x0000000000000000       0x34 /home/jordan/ncs/v2.5.1/nrfxlib/crypto/nrf_cc312_platform/lib/cortex-m33/soft-float/no-interrupts/libnrf_cc312_platform_0.9.18.a(ctr_drbg.c.obj)
 .text.cc_mbedtls_ctr_drbg_set_prediction_resistance
                0x0000000000000000        0x4 /home/jordan/ncs/v2.5.1/nrfxlib/crypto/nrf_cc312_platform/lib/cortex-m33/soft-float/no-interrupts/libnrf_cc312_platform_0.9.18.a(ctr_drbg.c.obj)
 .text.cc_mbedtls_ctr_drbg_set_entropy_len
                0x0000000000000000        0x4 /home/jordan/ncs/v2.5.1/nrfxlib/crypto/nrf_cc312_platform/lib/cortex-m33/soft-float/no-interrupts/libnrf_cc312_platform_0.9.18.a(ctr_drbg.c.obj)
 .text.cc_mbedtls_ctr_drbg_set_nonce_len
                0x0000000000000000       0x20 /home/jordan/ncs/v2.5.1/nrfxlib/crypto/nrf_cc312_platform/lib/cortex-m33/soft-float/no-interrupts/libnrf_cc312_platform_0.9.18.a(ctr_drbg.c.obj)
 .text.cc_mbedtls_ctr_drbg_set_reseed_interval
                0x0000000000000000        0x4 /home/jordan/ncs/v2.5.1/nrfxlib/crypto/nrf_cc312_platform/lib/cortex-m33/soft-float/no-interrupts/libnrf_cc312_platform_0.9.18.a(ctr_drbg.c.obj)
 .text.cc_mbedtls_ctr_drbg_update
                0x0000000000000000       0x34 /home/jordan/ncs/v2.5.1/nrfxlib/crypto/nrf_cc312_platform/lib/cortex-m33/soft-float/no-interrupts/libnrf_cc312_platform_0.9.18.a(ctr_drbg.c.obj)
 .text.cc_mbedtls_ctr_drbg_reseed
                0x0000000000000000       0x44 /home/jordan/ncs/v2.5.1/nrfxlib/crypto/nrf_cc312_platform/lib/cortex-m33/soft-float/no-interrupts/libnrf_cc312_platform_0.9.18.a(ctr_drbg.c.obj)
 .text.cc_mbedtls_ctr_drbg_random
                0x0000000000000000       0x14 /home/jordan/ncs/v2.5.1/nrfxlib/crypto/nrf_cc312_platform/lib/cortex-m33/soft-float/no-interrupts/libnrf_cc312_platform_0.9.18.a(ctr_drbg.c.obj)
 .text          0x0000000000000000        0x0 /home/jordan/ncs/v2.5.1/nrfxlib/crypto/nrf_cc312_platform/lib/cortex-m33/soft-float/no-interrupts/libnrf_cc312_platform_0.9.18.a(entropy.c.obj)
 .data          0x0000000000000000        0x0 /home/jordan/ncs/v2.5.1/nrfxlib/crypto/nrf_cc312_platform/lib/cortex-m33/soft-float/no-interrupts/libnrf_cc312_platform_0.9.18.a(entropy.c.obj)
 .bss           0x0000000000000000        0x0 /home/jordan/ncs/v2.5.1/nrfxlib/crypto/nrf_cc312_platform/lib/cortex-m33/soft-float/no-interrupts/libnrf_cc312_platform_0.9.18.a(entropy.c.obj)
 .text.cc_mbedtls_entropy_free
                0x0000000000000000       0x38 /home/jordan/ncs/v2.5.1/nrfxlib/crypto/nrf_cc312_platform/lib/cortex-m33/soft-float/no-interrupts/libnrf_cc312_platform_0.9.18.a(entropy.c.obj)
 .text.cc_mbedtls_entropy_add_source
                0x0000000000000000       0x64 /home/jordan/ncs/v2.5.1/nrfxlib/crypto/nrf_cc312_platform/lib/cortex-m33/soft-float/no-interrupts/libnrf_cc312_platform_0.9.18.a(entropy.c.obj)
 .text.cc_mbedtls_entropy_update_manual
                0x0000000000000000       0x4c /home/jordan/ncs/v2.5.1/nrfxlib/crypto/nrf_cc312_platform/lib/cortex-m33/soft-float/no-interrupts/libnrf_cc312_platform_0.9.18.a(entropy.c.obj)
 .text.cc_mbedtls_entropy_gather
                0x0000000000000000       0x48 /home/jordan/ncs/v2.5.1/nrfxlib/crypto/nrf_cc312_platform/lib/cortex-m33/soft-float/no-interrupts/libnrf_cc312_platform_0.9.18.a(entropy.c.obj)
 .text          0x0000000000000000        0x0 /home/jordan/ncs/v2.5.1/nrfxlib/crypto/nrf_cc312_platform/lib/cortex-m33/soft-float/no-interrupts/libnrf_cc312_platform_0.9.18.a(cc_lib.c.obj)
 .data          0x0000000000000000        0x0 /home/jordan/ncs/v2.5.1/nrfxlib/crypto/nrf_cc312_platform/lib/cortex-m33/soft-float/no-interrupts/libnrf_cc312_platform_0.9.18.a(cc_lib.c.obj)
 .bss           0x0000000000000000        0x0 /home/jordan/ncs/v2.5.1/nrfxlib/crypto/nrf_cc312_platform/lib/cortex-m33/soft-float/no-interrupts/libnrf_cc312_platform_0.9.18.a(cc_lib.c.obj)
 .text.CC_LibInitNoRng
                0x0000000000000000       0x28 /home/jordan/ncs/v2.5.1/nrfxlib/crypto/nrf_cc312_platform/lib/cortex-m33/soft-float/no-interrupts/libnrf_cc312_platform_0.9.18.a(cc_lib.c.obj)
 .text.CC_LibInit_HMAC_DRBG
                0x0000000000000000       0x74 /home/jordan/ncs/v2.5.1/nrfxlib/crypto/nrf_cc312_platform/lib/cortex-m33/soft-float/no-interrupts/libnrf_cc312_platform_0.9.18.a(cc_lib.c.obj)
 .text.CC_RandomSeedsFilled
                0x0000000000000000       0x18 /home/jordan/ncs/v2.5.1/nrfxlib/crypto/nrf_cc312_platform/lib/cortex-m33/soft-float/no-interrupts/libnrf_cc312_platform_0.9.18.a(cc_lib.c.obj)
 .text.CC_LibFini
                0x0000000000000000       0x18 /home/jordan/ncs/v2.5.1/nrfxlib/crypto/nrf_cc312_platform/lib/cortex-m33/soft-float/no-interrupts/libnrf_cc312_platform_0.9.18.a(cc_lib.c.obj)
 .text.CC_LibInitRngModule
                0x0000000000000000       0xbc /home/jordan/ncs/v2.5.1/nrfxlib/crypto/nrf_cc312_platform/lib/cortex-m33/soft-float/no-interrupts/libnrf_cc312_platform_0.9.18.a(cc_lib.c.obj)
 .data.tfm_random_seed_buff
                0x0000000000000000        0x4 /home/jordan/ncs/v2.5.1/nrfxlib/crypto/nrf_cc312_platform/lib/cortex-m33/soft-float/no-interrupts/libnrf_cc312_platform_0.9.18.a(cc_lib.c.obj)
 .data.eits_random_nonce_buff
                0x0000000000000000        0x4 /home/jordan/ncs/v2.5.1/nrfxlib/crypto/nrf_cc312_platform/lib/cortex-m33/soft-float/no-interrupts/libnrf_cc312_platform_0.9.18.a(cc_lib.c.obj)
 .data.invalid_chacha_256_bit_key
                0x0000000000000000        0x4 /home/jordan/ncs/v2.5.1/nrfxlib/crypto/nrf_cc312_platform/lib/cortex-m33/soft-float/no-interrupts/libnrf_cc312_platform_0.9.18.a(cc_lib.c.obj)
 .text          0x0000000000000000        0x0 /home/jordan/ncs/v2.5.1/nrfxlib/crypto/nrf_cc312_platform/lib/cortex-m33/soft-float/no-interrupts/libnrf_cc312_platform_0.9.18.a(cc_hal.c.obj)
 .data          0x0000000000000000        0x0 /home/jordan/ncs/v2.5.1/nrfxlib/crypto/nrf_cc312_platform/lib/cortex-m33/soft-float/no-interrupts/libnrf_cc312_platform_0.9.18.a(cc_hal.c.obj)
 .bss           0x0000000000000000        0x0 /home/jordan/ncs/v2.5.1/nrfxlib/crypto/nrf_cc312_platform/lib/cortex-m33/soft-float/no-interrupts/libnrf_cc312_platform_0.9.18.a(cc_hal.c.obj)
 .text.CC_HalTerminate
                0x0000000000000000        0x4 /home/jordan/ncs/v2.5.1/nrfxlib/crypto/nrf_cc312_platform/lib/cortex-m33/soft-float/no-interrupts/libnrf_cc312_platform_0.9.18.a(cc_hal.c.obj)
 .text.CC_HalClearInterruptBitRNG
                0x0000000000000000        0xc /home/jordan/ncs/v2.5.1/nrfxlib/crypto/nrf_cc312_platform/lib/cortex-m33/soft-float/no-interrupts/libnrf_cc312_platform_0.9.18.a(cc_hal.c.obj)
 .text          0x0000000000000000        0x0 /home/jordan/ncs/v2.5.1/nrfxlib/crypto/nrf_cc312_platform/lib/cortex-m33/soft-float/no-interrupts/libnrf_cc312_platform_0.9.18.a(cc_pal.c.obj)
 .data          0x0000000000000000        0x0 /home/jordan/ncs/v2.5.1/nrfxlib/crypto/nrf_cc312_platform/lib/cortex-m33/soft-float/no-interrupts/libnrf_cc312_platform_0.9.18.a(cc_pal.c.obj)
 .bss           0x0000000000000000        0x0 /home/jordan/ncs/v2.5.1/nrfxlib/crypto/nrf_cc312_platform/lib/cortex-m33/soft-float/no-interrupts/libnrf_cc312_platform_0.9.18.a(cc_pal.c.obj)
 .data.CCApbFilteringRegMutex
                0x0000000000000000        0x4 /home/jordan/ncs/v2.5.1/nrfxlib/crypto/nrf_cc312_platform/lib/cortex-m33/soft-float/no-interrupts/libnrf_cc312_platform_0.9.18.a(cc_pal.c.obj)
 .text          0x0000000000000000        0x0 /home/jordan/ncs/v2.5.1/nrfxlib/crypto/nrf_cc312_platform/lib/cortex-m33/soft-float/no-interrupts/libnrf_cc312_platform_0.9.18.a(cc_pal_dma.c.obj)
 .data          0x0000000000000000        0x0 /home/jordan/ncs/v2.5.1/nrfxlib/crypto/nrf_cc312_platform/lib/cortex-m33/soft-float/no-interrupts/libnrf_cc312_platform_0.9.18.a(cc_pal_dma.c.obj)
 .bss           0x0000000000000000        0x0 /home/jordan/ncs/v2.5.1/nrfxlib/crypto/nrf_cc312_platform/lib/cortex-m33/soft-float/no-interrupts/libnrf_cc312_platform_0.9.18.a(cc_pal_dma.c.obj)
 .text          0x0000000000000000        0x0 /home/jordan/ncs/v2.5.1/nrfxlib/crypto/nrf_cc312_platform/lib/cortex-m33/soft-float/no-interrupts/libnrf_cc312_platform_0.9.18.a(cc_pal_interrupt_ctrl.c.obj)
 .data          0x0000000000000000        0x0 /home/jordan/ncs/v2.5.1/nrfxlib/crypto/nrf_cc312_platform/lib/cortex-m33/soft-float/no-interrupts/libnrf_cc312_platform_0.9.18.a(cc_pal_interrupt_ctrl.c.obj)
 .bss           0x0000000000000000        0x0 /home/jordan/ncs/v2.5.1/nrfxlib/crypto/nrf_cc312_platform/lib/cortex-m33/soft-float/no-interrupts/libnrf_cc312_platform_0.9.18.a(cc_pal_interrupt_ctrl.c.obj)
 .text          0x0000000000000000        0x0 /home/jordan/ncs/v2.5.1/nrfxlib/crypto/nrf_cc312_platform/lib/cortex-m33/soft-float/no-interrupts/libnrf_cc312_platform_0.9.18.a(cc_pal_mem.c.obj)
 .data          0x0000000000000000        0x0 /home/jordan/ncs/v2.5.1/nrfxlib/crypto/nrf_cc312_platform/lib/cortex-m33/soft-float/no-interrupts/libnrf_cc312_platform_0.9.18.a(cc_pal_mem.c.obj)
 .bss           0x0000000000000000        0x0 /home/jordan/ncs/v2.5.1/nrfxlib/crypto/nrf_cc312_platform/lib/cortex-m33/soft-float/no-interrupts/libnrf_cc312_platform_0.9.18.a(cc_pal_mem.c.obj)
 .text.CC_PalSecMemCmp
                0x0000000000000000       0x34 /home/jordan/ncs/v2.5.1/nrfxlib/crypto/nrf_cc312_platform/lib/cortex-m33/soft-float/no-interrupts/libnrf_cc312_platform_0.9.18.a(cc_pal_mem.c.obj)
 .text.CC_PalMemCmpPlat
                0x0000000000000000        0x4 /home/jordan/ncs/v2.5.1/nrfxlib/crypto/nrf_cc312_platform/lib/cortex-m33/soft-float/no-interrupts/libnrf_cc312_platform_0.9.18.a(cc_pal_mem.c.obj)
 .text.CC_PalMemMovePlat
                0x0000000000000000        0x4 /home/jordan/ncs/v2.5.1/nrfxlib/crypto/nrf_cc312_platform/lib/cortex-m33/soft-float/no-interrupts/libnrf_cc312_platform_0.9.18.a(cc_pal_mem.c.obj)
 .text          0x0000000000000000        0x0 /home/jordan/ncs/v2.5.1/nrfxlib/crypto/nrf_cc312_platform/lib/cortex-m33/soft-float/no-interrupts/libnrf_cc312_platform_0.9.18.a(cc_pal_mutex.c.obj)
 .data          0x0000000000000000        0x0 /home/jordan/ncs/v2.5.1/nrfxlib/crypto/nrf_cc312_platform/lib/cortex-m33/soft-float/no-interrupts/libnrf_cc312_platform_0.9.18.a(cc_pal_mutex.c.obj)
 .bss           0x0000000000000000        0x0 /home/jordan/ncs/v2.5.1/nrfxlib/crypto/nrf_cc312_platform/lib/cortex-m33/soft-float/no-interrupts/libnrf_cc312_platform_0.9.18.a(cc_pal_mutex.c.obj)
 .text          0x0000000000000000        0x0 /home/jordan/ncs/v2.5.1/nrfxlib/crypto/nrf_cc312_platform/lib/cortex-m33/soft-float/no-interrupts/libnrf_cc312_platform_0.9.18.a(cc_pal_pm.c.obj)
 .data          0x0000000000000000        0x0 /home/jordan/ncs/v2.5.1/nrfxlib/crypto/nrf_cc312_platform/lib/cortex-m33/soft-float/no-interrupts/libnrf_cc312_platform_0.9.18.a(cc_pal_pm.c.obj)
 .bss           0x0000000000000000        0x0 /home/jordan/ncs/v2.5.1/nrfxlib/crypto/nrf_cc312_platform/lib/cortex-m33/soft-float/no-interrupts/libnrf_cc312_platform_0.9.18.a(cc_pal_pm.c.obj)
 .text.CC_PalPowerSaveModeStatus
                0x0000000000000000        0xc /home/jordan/ncs/v2.5.1/nrfxlib/crypto/nrf_cc312_platform/lib/cortex-m33/soft-float/no-interrupts/libnrf_cc312_platform_0.9.18.a(cc_pal_pm.c.obj)
 .text          0x0000000000000000        0x0 /home/jordan/ncs/v2.5.1/nrfxlib/crypto/nrf_cc312_platform/lib/cortex-m33/soft-float/no-interrupts/libnrf_cc312_platform_0.9.18.a(threading_alt.c.obj)
 .data          0x0000000000000000        0x0 /home/jordan/ncs/v2.5.1/nrfxlib/crypto/nrf_cc312_platform/lib/cortex-m33/soft-float/no-interrupts/libnrf_cc312_platform_0.9.18.a(threading_alt.c.obj)
 .bss           0x0000000000000000        0x0 /home/jordan/ncs/v2.5.1/nrfxlib/crypto/nrf_cc312_platform/lib/cortex-m33/soft-float/no-interrupts/libnrf_cc312_platform_0.9.18.a(threading_alt.c.obj)
 .text.mutex_free
                0x0000000000000000        0xc /home/jordan/ncs/v2.5.1/nrfxlib/crypto/nrf_cc312_platform/lib/cortex-m33/soft-float/no-interrupts/libnrf_cc312_platform_0.9.18.a(threading_alt.c.obj)
 .rodata.mbedtls_threading_set_alt.str1.4
                0x0000000000000000       0x44 /home/jordan/ncs/v2.5.1/nrfxlib/crypto/nrf_cc312_platform/lib/cortex-m33/soft-float/no-interrupts/libnrf_cc312_platform_0.9.18.a(threading_alt.c.obj)
 .text.mbedtls_threading_set_alt
                0x0000000000000000       0x34 /home/jordan/ncs/v2.5.1/nrfxlib/crypto/nrf_cc312_platform/lib/cortex-m33/soft-float/no-interrupts/libnrf_cc312_platform_0.9.18.a(threading_alt.c.obj)
 .text.mbedtls_threading_free_alt
                0x0000000000000000        0x4 /home/jordan/ncs/v2.5.1/nrfxlib/crypto/nrf_cc312_platform/lib/cortex-m33/soft-float/no-interrupts/libnrf_cc312_platform_0.9.18.a(threading_alt.c.obj)
 .data.mbedtls_mutex_free
                0x0000000000000000        0x4 /home/jordan/ncs/v2.5.1/nrfxlib/crypto/nrf_cc312_platform/lib/cortex-m33/soft-float/no-interrupts/libnrf_cc312_platform_0.9.18.a(threading_alt.c.obj)
 .text          0x0000000000000000        0x0 /home/jordan/ncs/v2.5.1/nrfxlib/crypto/nrf_cc312_platform/lib/cortex-m33/soft-float/no-interrupts/libnrf_cc312_platform_0.9.18.a(nrf_cc3xx_platform_abort.c.obj)
 .data          0x0000000000000000        0x0 /home/jordan/ncs/v2.5.1/nrfxlib/crypto/nrf_cc312_platform/lib/cortex-m33/soft-float/no-interrupts/libnrf_cc312_platform_0.9.18.a(nrf_cc3xx_platform_abort.c.obj)
 .bss           0x0000000000000000        0x0 /home/jordan/ncs/v2.5.1/nrfxlib/crypto/nrf_cc312_platform/lib/cortex-m33/soft-float/no-interrupts/libnrf_cc312_platform_0.9.18.a(nrf_cc3xx_platform_abort.c.obj)
 .text.nrf_cc3xx_platform_set_abort
                0x0000000000000000       0x10 /home/jordan/ncs/v2.5.1/nrfxlib/crypto/nrf_cc312_platform/lib/cortex-m33/soft-float/no-interrupts/libnrf_cc312_platform_0.9.18.a(nrf_cc3xx_platform_abort.c.obj)
 .text          0x0000000000000000        0x0 /home/jordan/ncs/v2.5.1/nrfxlib/crypto/nrf_cc312_platform/lib/cortex-m33/soft-float/no-interrupts/libnrf_cc312_platform_0.9.18.a(nrf_cc3xx_platform_hmac_drbg.c.obj)
 .data          0x0000000000000000        0x0 /home/jordan/ncs/v2.5.1/nrfxlib/crypto/nrf_cc312_platform/lib/cortex-m33/soft-float/no-interrupts/libnrf_cc312_platform_0.9.18.a(nrf_cc3xx_platform_hmac_drbg.c.obj)
 .bss           0x0000000000000000        0x0 /home/jordan/ncs/v2.5.1/nrfxlib/crypto/nrf_cc312_platform/lib/cortex-m33/soft-float/no-interrupts/libnrf_cc312_platform_0.9.18.a(nrf_cc3xx_platform_hmac_drbg.c.obj)
 .text.nrf_cc3xx_platform_hmac_drbg_init
                0x0000000000000000       0x60 /home/jordan/ncs/v2.5.1/nrfxlib/crypto/nrf_cc312_platform/lib/cortex-m33/soft-float/no-interrupts/libnrf_cc312_platform_0.9.18.a(nrf_cc3xx_platform_hmac_drbg.c.obj)
 .text.nrf_cc3xx_platform_hmac_drbg_free
                0x0000000000000000       0x2c /home/jordan/ncs/v2.5.1/nrfxlib/crypto/nrf_cc312_platform/lib/cortex-m33/soft-float/no-interrupts/libnrf_cc312_platform_0.9.18.a(nrf_cc3xx_platform_hmac_drbg.c.obj)
 .text.nrf_cc3xx_platform_hmac_drbg_set_pr
                0x0000000000000000       0x28 /home/jordan/ncs/v2.5.1/nrfxlib/crypto/nrf_cc312_platform/lib/cortex-m33/soft-float/no-interrupts/libnrf_cc312_platform_0.9.18.a(nrf_cc3xx_platform_hmac_drbg.c.obj)
 .text.nrf_cc3xx_platform_hmac_drbg_set_reseed_interval
                0x0000000000000000       0x30 /home/jordan/ncs/v2.5.1/nrfxlib/crypto/nrf_cc312_platform/lib/cortex-m33/soft-float/no-interrupts/libnrf_cc312_platform_0.9.18.a(nrf_cc3xx_platform_hmac_drbg.c.obj)
 .text.nrf_cc3xx_platform_hmac_drbg_reseed
                0x0000000000000000       0x38 /home/jordan/ncs/v2.5.1/nrfxlib/crypto/nrf_cc312_platform/lib/cortex-m33/soft-float/no-interrupts/libnrf_cc312_platform_0.9.18.a(nrf_cc3xx_platform_hmac_drbg.c.obj)
 .text.nrf_cc3xx_platform_hmac_drbg_get_with_add
                0x0000000000000000       0x58 /home/jordan/ncs/v2.5.1/nrfxlib/crypto/nrf_cc312_platform/lib/cortex-m33/soft-float/no-interrupts/libnrf_cc312_platform_0.9.18.a(nrf_cc3xx_platform_hmac_drbg.c.obj)
 .text.nrf_cc3xx_platform_hmac_drbg_get
                0x0000000000000000       0x44 /home/jordan/ncs/v2.5.1/nrfxlib/crypto/nrf_cc312_platform/lib/cortex-m33/soft-float/no-interrupts/libnrf_cc312_platform_0.9.18.a(nrf_cc3xx_platform_hmac_drbg.c.obj)
 .bss.global_ctx
                0x0000000000000000      0x250 /home/jordan/ncs/v2.5.1/nrfxlib/crypto/nrf_cc312_platform/lib/cortex-m33/soft-float/no-interrupts/libnrf_cc312_platform_0.9.18.a(nrf_cc3xx_platform_hmac_drbg.c.obj)
 .comment       0x0000000000000000       0x21 /home/jordan/ncs/v2.5.1/nrfxlib/crypto/nrf_cc312_platform/lib/cortex-m33/soft-float/no-interrupts/libnrf_cc312_platform_0.9.18.a(nrf_cc3xx_platform_hmac_drbg.c.obj)
 .ARM.attributes
                0x0000000000000000       0x34 /home/jordan/ncs/v2.5.1/nrfxlib/crypto/nrf_cc312_platform/lib/cortex-m33/soft-float/no-interrupts/libnrf_cc312_platform_0.9.18.a(nrf_cc3xx_platform_hmac_drbg.c.obj)
 .text          0x0000000000000000        0x0 /home/jordan/ncs/v2.5.1/nrfxlib/crypto/nrf_cc312_platform/lib/cortex-m33/soft-float/no-interrupts/libnrf_cc312_platform_0.9.18.a(nrf_cc3xx_platform_mutex.c.obj)
 .data          0x0000000000000000        0x0 /home/jordan/ncs/v2.5.1/nrfxlib/crypto/nrf_cc312_platform/lib/cortex-m33/soft-float/no-interrupts/libnrf_cc312_platform_0.9.18.a(nrf_cc3xx_platform_mutex.c.obj)
 .bss           0x0000000000000000        0x0 /home/jordan/ncs/v2.5.1/nrfxlib/crypto/nrf_cc312_platform/lib/cortex-m33/soft-float/no-interrupts/libnrf_cc312_platform_0.9.18.a(nrf_cc3xx_platform_mutex.c.obj)
 .text.nrf_cc3xx_platform_set_mutexes
                0x0000000000000000       0x78 /home/jordan/ncs/v2.5.1/nrfxlib/crypto/nrf_cc312_platform/lib/cortex-m33/soft-float/no-interrupts/libnrf_cc312_platform_0.9.18.a(nrf_cc3xx_platform_mutex.c.obj)
 .text          0x0000000000000000        0x0 /home/jordan/ncs/v2.5.1/nrfxlib/crypto/nrf_cc312_platform/lib/cortex-m33/soft-float/no-interrupts/libnrf_cc312_platform_0.9.18.a(llf_rnd_trng90b.c.obj)
 .data          0x0000000000000000        0x0 /home/jordan/ncs/v2.5.1/nrfxlib/crypto/nrf_cc312_platform/lib/cortex-m33/soft-float/no-interrupts/libnrf_cc312_platform_0.9.18.a(llf_rnd_trng90b.c.obj)
 .bss           0x0000000000000000        0x0 /home/jordan/ncs/v2.5.1/nrfxlib/crypto/nrf_cc312_platform/lib/cortex-m33/soft-float/no-interrupts/libnrf_cc312_platform_0.9.18.a(llf_rnd_trng90b.c.obj)
 .text.LLF_RND_StartTrngHW
                0x0000000000000000      0x10c /home/jordan/ncs/v2.5.1/nrfxlib/crypto/nrf_cc312_platform/lib/cortex-m33/soft-float/no-interrupts/libnrf_cc312_platform_0.9.18.a(llf_rnd_trng90b.c.obj)
 .text          0x0000000000000000        0x0 /home/jordan/ncs/v2.5.1/nrfxlib/crypto/nrf_cc312_platform/lib/cortex-m33/soft-float/no-interrupts/libnrf_cc312_platform_0.9.18.a(trng_api.c.obj)
 .data          0x0000000000000000        0x0 /home/jordan/ncs/v2.5.1/nrfxlib/crypto/nrf_cc312_platform/lib/cortex-m33/soft-float/no-interrupts/libnrf_cc312_platform_0.9.18.a(trng_api.c.obj)
 .bss           0x0000000000000000        0x0 /home/jordan/ncs/v2.5.1/nrfxlib/crypto/nrf_cc312_platform/lib/cortex-m33/soft-float/no-interrupts/libnrf_cc312_platform_0.9.18.a(trng_api.c.obj)
 .text          0x0000000000000000        0x0 /home/jordan/ncs/v2.5.1/nrfxlib/crypto/nrf_cc312_platform/lib/cortex-m33/soft-float/no-interrupts/libnrf_cc312_platform_0.9.18.a(aes_alt.c.obj)
 .data          0x0000000000000000        0x0 /home/jordan/ncs/v2.5.1/nrfxlib/crypto/nrf_cc312_platform/lib/cortex-m33/soft-float/no-interrupts/libnrf_cc312_platform_0.9.18.a(aes_alt.c.obj)
 .bss           0x0000000000000000        0x0 /home/jordan/ncs/v2.5.1/nrfxlib/crypto/nrf_cc312_platform/lib/cortex-m33/soft-float/no-interrupts/libnrf_cc312_platform_0.9.18.a(aes_alt.c.obj)
 .text.cc_mbedtls_aes_setkey_dec
                0x0000000000000000       0x44 /home/jordan/ncs/v2.5.1/nrfxlib/crypto/nrf_cc312_platform/lib/cortex-m33/soft-float/no-interrupts/libnrf_cc312_platform_0.9.18.a(aes_alt.c.obj)
 .text.cc_mbedtls_aes_crypt_cbc
                0x0000000000000000       0x78 /home/jordan/ncs/v2.5.1/nrfxlib/crypto/nrf_cc312_platform/lib/cortex-m33/soft-float/no-interrupts/libnrf_cc312_platform_0.9.18.a(aes_alt.c.obj)
 .text.cc_mbedtls_aes_crypt_cfb128
                0x0000000000000000        0x8 /home/jordan/ncs/v2.5.1/nrfxlib/crypto/nrf_cc312_platform/lib/cortex-m33/soft-float/no-interrupts/libnrf_cc312_platform_0.9.18.a(aes_alt.c.obj)
 .text.cc_mbedtls_aes_crypt_cfb8
                0x0000000000000000        0x8 /home/jordan/ncs/v2.5.1/nrfxlib/crypto/nrf_cc312_platform/lib/cortex-m33/soft-float/no-interrupts/libnrf_cc312_platform_0.9.18.a(aes_alt.c.obj)
 .text.cc_mbedtls_aes_crypt_ctr
                0x0000000000000000       0x68 /home/jordan/ncs/v2.5.1/nrfxlib/crypto/nrf_cc312_platform/lib/cortex-m33/soft-float/no-interrupts/libnrf_cc312_platform_0.9.18.a(aes_alt.c.obj)
 .text.cc_mbedtls_aes_crypt_ofb
                0x0000000000000000       0x68 /home/jordan/ncs/v2.5.1/nrfxlib/crypto/nrf_cc312_platform/lib/cortex-m33/soft-float/no-interrupts/libnrf_cc312_platform_0.9.18.a(aes_alt.c.obj)
 .text.cc_mbedtls_internal_aes_encrypt
                0x0000000000000000       0x44 /home/jordan/ncs/v2.5.1/nrfxlib/crypto/nrf_cc312_platform/lib/cortex-m33/soft-float/no-interrupts/libnrf_cc312_platform_0.9.18.a(aes_alt.c.obj)
 .text.cc_mbedtls_internal_aes_decrypt
                0x0000000000000000       0x48 /home/jordan/ncs/v2.5.1/nrfxlib/crypto/nrf_cc312_platform/lib/cortex-m33/soft-float/no-interrupts/libnrf_cc312_platform_0.9.18.a(aes_alt.c.obj)
 .text          0x0000000000000000        0x0 /home/jordan/ncs/v2.5.1/nrfxlib/crypto/nrf_cc312_platform/lib/cortex-m33/soft-float/no-interrupts/libnrf_cc312_platform_0.9.18.a(sha256_alt.c.obj)
 .data          0x0000000000000000        0x0 /home/jordan/ncs/v2.5.1/nrfxlib/crypto/nrf_cc312_platform/lib/cortex-m33/soft-float/no-interrupts/libnrf_cc312_platform_0.9.18.a(sha256_alt.c.obj)
 .bss           0x0000000000000000        0x0 /home/jordan/ncs/v2.5.1/nrfxlib/crypto/nrf_cc312_platform/lib/cortex-m33/soft-float/no-interrupts/libnrf_cc312_platform_0.9.18.a(sha256_alt.c.obj)
 .rodata.cc_mbedtls_sha256_clone.str1.4
                0x0000000000000000       0x15 /home/jordan/ncs/v2.5.1/nrfxlib/crypto/nrf_cc312_platform/lib/cortex-m33/soft-float/no-interrupts/libnrf_cc312_platform_0.9.18.a(sha256_alt.c.obj)
 .text.cc_mbedtls_sha256_clone
                0x0000000000000000       0x2c /home/jordan/ncs/v2.5.1/nrfxlib/crypto/nrf_cc312_platform/lib/cortex-m33/soft-float/no-interrupts/libnrf_cc312_platform_0.9.18.a(sha256_alt.c.obj)
 .text.cc_mbedtls_internal_sha256_process
                0x0000000000000000       0x10 /home/jordan/ncs/v2.5.1/nrfxlib/crypto/nrf_cc312_platform/lib/cortex-m33/soft-float/no-interrupts/libnrf_cc312_platform_0.9.18.a(sha256_alt.c.obj)
 .text          0x0000000000000000        0x0 /home/jordan/ncs/v2.5.1/nrfxlib/crypto/nrf_cc312_platform/lib/cortex-m33/soft-float/no-interrupts/libnrf_cc312_platform_0.9.18.a(mbedtls_hash_common.c.obj)
 .data          0x0000000000000000        0x0 /home/jordan/ncs/v2.5.1/nrfxlib/crypto/nrf_cc312_platform/lib/cortex-m33/soft-float/no-interrupts/libnrf_cc312_platform_0.9.18.a(mbedtls_hash_common.c.obj)
 .bss           0x0000000000000000        0x0 /home/jordan/ncs/v2.5.1/nrfxlib/crypto/nrf_cc312_platform/lib/cortex-m33/soft-float/no-interrupts/libnrf_cc312_platform_0.9.18.a(mbedtls_hash_common.c.obj)
 .text.mbedtls_sha_process_internal
                0x0000000000000000       0xe0 /home/jordan/ncs/v2.5.1/nrfxlib/crypto/nrf_cc312_platform/lib/cortex-m33/soft-float/no-interrupts/libnrf_cc312_platform_0.9.18.a(mbedtls_hash_common.c.obj)
 .text          0x0000000000000000        0x0 /home/jordan/ncs/v2.5.1/nrfxlib/crypto/nrf_cc312_platform/lib/cortex-m33/soft-float/no-interrupts/libnrf_cc312_platform_0.9.18.a(sha256.c.obj)
 .data          0x0000000000000000        0x0 /home/jordan/ncs/v2.5.1/nrfxlib/crypto/nrf_cc312_platform/lib/cortex-m33/soft-float/no-interrupts/libnrf_cc312_platform_0.9.18.a(sha256.c.obj)
 .bss           0x0000000000000000        0x0 /home/jordan/ncs/v2.5.1/nrfxlib/crypto/nrf_cc312_platform/lib/cortex-m33/soft-float/no-interrupts/libnrf_cc312_platform_0.9.18.a(sha256.c.obj)
 .text          0x0000000000000000        0x0 /home/jordan/ncs/v2.5.1/nrfxlib/crypto/nrf_cc312_platform/lib/cortex-m33/soft-float/no-interrupts/libnrf_cc312_platform_0.9.18.a(hmac_drbg_alt.c.obj)
 .data          0x0000000000000000        0x0 /home/jordan/ncs/v2.5.1/nrfxlib/crypto/nrf_cc312_platform/lib/cortex-m33/soft-float/no-interrupts/libnrf_cc312_platform_0.9.18.a(hmac_drbg_alt.c.obj)
 .bss           0x0000000000000000        0x0 /home/jordan/ncs/v2.5.1/nrfxlib/crypto/nrf_cc312_platform/lib/cortex-m33/soft-float/no-interrupts/libnrf_cc312_platform_0.9.18.a(hmac_drbg_alt.c.obj)
 .text.cc_hmac_sha256_starts.constprop.0
                0x0000000000000000      0x108 /home/jordan/ncs/v2.5.1/nrfxlib/crypto/nrf_cc312_platform/lib/cortex-m33/soft-float/no-interrupts/libnrf_cc312_platform_0.9.18.a(hmac_drbg_alt.c.obj)
 .text.cc_mbedtls_hmac_drbg_init
                0x0000000000000000       0x28 /home/jordan/ncs/v2.5.1/nrfxlib/crypto/nrf_cc312_platform/lib/cortex-m33/soft-float/no-interrupts/libnrf_cc312_platform_0.9.18.a(hmac_drbg_alt.c.obj)
 .text.cc_mbedtls_hmac_drbg_update
                0x0000000000000000      0x170 /home/jordan/ncs/v2.5.1/nrfxlib/crypto/nrf_cc312_platform/lib/cortex-m33/soft-float/no-interrupts/libnrf_cc312_platform_0.9.18.a(hmac_drbg_alt.c.obj)
 .text.cc_hmac_drbg_reseed_core
                0x0000000000000000       0xac /home/jordan/ncs/v2.5.1/nrfxlib/crypto/nrf_cc312_platform/lib/cortex-m33/soft-float/no-interrupts/libnrf_cc312_platform_0.9.18.a(hmac_drbg_alt.c.obj)
 .text.cc_mbedtls_hmac_drbg_seed_buf
                0x0000000000000000       0x34 /home/jordan/ncs/v2.5.1/nrfxlib/crypto/nrf_cc312_platform/lib/cortex-m33/soft-float/no-interrupts/libnrf_cc312_platform_0.9.18.a(hmac_drbg_alt.c.obj)
 .text.cc_mbedtls_hmac_drbg_reseed
                0x0000000000000000        0x8 /home/jordan/ncs/v2.5.1/nrfxlib/crypto/nrf_cc312_platform/lib/cortex-m33/soft-float/no-interrupts/libnrf_cc312_platform_0.9.18.a(hmac_drbg_alt.c.obj)
 .text.cc_mbedtls_hmac_drbg_seed
                0x0000000000000000       0x54 /home/jordan/ncs/v2.5.1/nrfxlib/crypto/nrf_cc312_platform/lib/cortex-m33/soft-float/no-interrupts/libnrf_cc312_platform_0.9.18.a(hmac_drbg_alt.c.obj)
 .text.cc_mbedtls_hmac_drbg_set_prediction_resistance
                0x0000000000000000        0x8 /home/jordan/ncs/v2.5.1/nrfxlib/crypto/nrf_cc312_platform/lib/cortex-m33/soft-float/no-interrupts/libnrf_cc312_platform_0.9.18.a(hmac_drbg_alt.c.obj)
 .text.cc_mbedtls_hmac_drbg_set_entropy_len
                0x0000000000000000        0x8 /home/jordan/ncs/v2.5.1/nrfxlib/crypto/nrf_cc312_platform/lib/cortex-m33/soft-float/no-interrupts/libnrf_cc312_platform_0.9.18.a(hmac_drbg_alt.c.obj)
 .text.cc_mbedtls_hmac_drbg_set_reseed_interval
                0x0000000000000000        0x8 /home/jordan/ncs/v2.5.1/nrfxlib/crypto/nrf_cc312_platform/lib/cortex-m33/soft-float/no-interrupts/libnrf_cc312_platform_0.9.18.a(hmac_drbg_alt.c.obj)
 .text.cc_mbedtls_hmac_drbg_random_with_add
                0x0000000000000000      0x144 /home/jordan/ncs/v2.5.1/nrfxlib/crypto/nrf_cc312_platform/lib/cortex-m33/soft-float/no-interrupts/libnrf_cc312_platform_0.9.18.a(hmac_drbg_alt.c.obj)
 .text.cc_mbedtls_hmac_drbg_random
                0x0000000000000000       0x4c /home/jordan/ncs/v2.5.1/nrfxlib/crypto/nrf_cc312_platform/lib/cortex-m33/soft-float/no-interrupts/libnrf_cc312_platform_0.9.18.a(hmac_drbg_alt.c.obj)
 .text.cc_mbedtls_hmac_drbg_free
                0x0000000000000000       0x40 /home/jordan/ncs/v2.5.1/nrfxlib/crypto/nrf_cc312_platform/lib/cortex-m33/soft-float/no-interrupts/libnrf_cc312_platform_0.9.18.a(hmac_drbg_alt.c.obj)
 .bss.hmac_ctx  0x0000000000000000       0x80 /home/jordan/ncs/v2.5.1/nrfxlib/crypto/nrf_cc312_platform/lib/cortex-m33/soft-float/no-interrupts/libnrf_cc312_platform_0.9.18.a(hmac_drbg_alt.c.obj)
 .comment       0x0000000000000000       0x21 /home/jordan/ncs/v2.5.1/nrfxlib/crypto/nrf_cc312_platform/lib/cortex-m33/soft-float/no-interrupts/libnrf_cc312_platform_0.9.18.a(hmac_drbg_alt.c.obj)
 .ARM.attributes
                0x0000000000000000       0x34 /home/jordan/ncs/v2.5.1/nrfxlib/crypto/nrf_cc312_platform/lib/cortex-m33/soft-float/no-interrupts/libnrf_cc312_platform_0.9.18.a(hmac_drbg_alt.c.obj)
 .text          0x0000000000000000        0x0 /home/jordan/ncs/v2.5.1/nrfxlib/crypto/nrf_cc312_platform/lib/cortex-m33/soft-float/no-interrupts/libnrf_cc312_platform_0.9.18.a(cc_rng_plat.c.obj)
 .data          0x0000000000000000        0x0 /home/jordan/ncs/v2.5.1/nrfxlib/crypto/nrf_cc312_platform/lib/cortex-m33/soft-float/no-interrupts/libnrf_cc312_platform_0.9.18.a(cc_rng_plat.c.obj)
 .bss           0x0000000000000000        0x0 /home/jordan/ncs/v2.5.1/nrfxlib/crypto/nrf_cc312_platform/lib/cortex-m33/soft-float/no-interrupts/libnrf_cc312_platform_0.9.18.a(cc_rng_plat.c.obj)
 .text          0x0000000000000000        0x0 /home/jordan/ncs/v2.5.1/nrfxlib/crypto/nrf_cc312_platform/lib/cortex-m33/soft-float/no-interrupts/libnrf_cc312_platform_0.9.18.a(cc_pal_trng.c.obj)
 .data          0x0000000000000000        0x0 /home/jordan/ncs/v2.5.1/nrfxlib/crypto/nrf_cc312_platform/lib/cortex-m33/soft-float/no-interrupts/libnrf_cc312_platform_0.9.18.a(cc_pal_trng.c.obj)
 .bss           0x0000000000000000        0x0 /home/jordan/ncs/v2.5.1/nrfxlib/crypto/nrf_cc312_platform/lib/cortex-m33/soft-float/no-interrupts/libnrf_cc312_platform_0.9.18.a(cc_pal_trng.c.obj)
 .text          0x0000000000000000        0x0 /home/jordan/ncs/v2.5.1/nrfxlib/crypto/nrf_cc312_platform/lib/cortex-m33/soft-float/no-interrupts/libnrf_cc312_platform_0.9.18.a(llf_rnd.c.obj)
 .data          0x0000000000000000        0x0 /home/jordan/ncs/v2.5.1/nrfxlib/crypto/nrf_cc312_platform/lib/cortex-m33/soft-float/no-interrupts/libnrf_cc312_platform_0.9.18.a(llf_rnd.c.obj)
 .bss           0x0000000000000000        0x0 /home/jordan/ncs/v2.5.1/nrfxlib/crypto/nrf_cc312_platform/lib/cortex-m33/soft-float/no-interrupts/libnrf_cc312_platform_0.9.18.a(llf_rnd.c.obj)
 .text.Mult32x32
                0x0000000000000000       0x40 /home/jordan/ncs/v2.5.1/nrfxlib/crypto/nrf_cc312_platform/lib/cortex-m33/soft-float/no-interrupts/libnrf_cc312_platform_0.9.18.a(llf_rnd.c.obj)
 .text.Mult48x16
                0x0000000000000000       0x1c /home/jordan/ncs/v2.5.1/nrfxlib/crypto/nrf_cc312_platform/lib/cortex-m33/soft-float/no-interrupts/libnrf_cc312_platform_0.9.18.a(llf_rnd.c.obj)
 .text.LLF_RND_EntropyEstimateFull
                0x0000000000000000      0x52c /home/jordan/ncs/v2.5.1/nrfxlib/crypto/nrf_cc312_platform/lib/cortex-m33/soft-float/no-interrupts/libnrf_cc312_platform_0.9.18.a(llf_rnd.c.obj)
 .text.LLF_RND_GetCountRoscs
                0x0000000000000000       0x18 /home/jordan/ncs/v2.5.1/nrfxlib/crypto/nrf_cc312_platform/lib/cortex-m33/soft-float/no-interrupts/libnrf_cc312_platform_0.9.18.a(llf_rnd.c.obj)
 .text.LLF_RND_RndCprngt
                0x0000000000000000       0x58 /home/jordan/ncs/v2.5.1/nrfxlib/crypto/nrf_cc312_platform/lib/cortex-m33/soft-float/no-interrupts/libnrf_cc312_platform_0.9.18.a(llf_rnd.c.obj)
 .text          0x0000000000000000        0x0 /home/jordan/ncs/v2.5.1/nrfxlib/crypto/nrf_cc312_platform/lib/cortex-m33/soft-float/no-interrupts/libnrf_cc312_platform_0.9.18.a(driver_common.c.obj)
 .data          0x0000000000000000        0x0 /home/jordan/ncs/v2.5.1/nrfxlib/crypto/nrf_cc312_platform/lib/cortex-m33/soft-float/no-interrupts/libnrf_cc312_platform_0.9.18.a(driver_common.c.obj)
 .bss           0x0000000000000000        0x0 /home/jordan/ncs/v2.5.1/nrfxlib/crypto/nrf_cc312_platform/lib/cortex-m33/soft-float/no-interrupts/libnrf_cc312_platform_0.9.18.a(driver_common.c.obj)
 .text          0x0000000000000000        0x0 /home/jordan/ncs/v2.5.1/nrfxlib/crypto/nrf_cc312_platform/lib/cortex-m33/soft-float/no-interrupts/libnrf_cc312_platform_0.9.18.a(hash_driver.c.obj)
 .data          0x0000000000000000        0x0 /home/jordan/ncs/v2.5.1/nrfxlib/crypto/nrf_cc312_platform/lib/cortex-m33/soft-float/no-interrupts/libnrf_cc312_platform_0.9.18.a(hash_driver.c.obj)
 .bss           0x0000000000000000        0x0 /home/jordan/ncs/v2.5.1/nrfxlib/crypto/nrf_cc312_platform/lib/cortex-m33/soft-float/no-interrupts/libnrf_cc312_platform_0.9.18.a(hash_driver.c.obj)
 .text          0x0000000000000000        0x0 /home/jordan/ncs/v2.5.1/nrfxlib/crypto/nrf_cc312_platform/lib/cortex-m33/soft-float/no-interrupts/libnrf_cc312_platform_0.9.18.a(aes_driver.c.obj)
 .data          0x0000000000000000        0x0 /home/jordan/ncs/v2.5.1/nrfxlib/crypto/nrf_cc312_platform/lib/cortex-m33/soft-float/no-interrupts/libnrf_cc312_platform_0.9.18.a(aes_driver.c.obj)
 .bss           0x0000000000000000        0x0 /home/jordan/ncs/v2.5.1/nrfxlib/crypto/nrf_cc312_platform/lib/cortex-m33/soft-float/no-interrupts/libnrf_cc312_platform_0.9.18.a(aes_driver.c.obj)
 .text          0x0000000000000000        0x0 /home/jordan/ncs/v2.5.1/nrfxlib/crypto/nrf_cc312_platform/lib/cortex-m33/soft-float/no-interrupts/libnrf_cc312_platform_0.9.18.a(kmu_shared.c.obj)
 .data          0x0000000000000000        0x0 /home/jordan/ncs/v2.5.1/nrfxlib/crypto/nrf_cc312_platform/lib/cortex-m33/soft-float/no-interrupts/libnrf_cc312_platform_0.9.18.a(kmu_shared.c.obj)
 .bss           0x0000000000000000        0x0 /home/jordan/ncs/v2.5.1/nrfxlib/crypto/nrf_cc312_platform/lib/cortex-m33/soft-float/no-interrupts/libnrf_cc312_platform_0.9.18.a(kmu_shared.c.obj)
 .text.kmu_write_key_slot
                0x0000000000000000       0xd8 /home/jordan/ncs/v2.5.1/nrfxlib/crypto/nrf_cc312_platform/lib/cortex-m33/soft-float/no-interrupts/libnrf_cc312_platform_0.9.18.a(kmu_shared.c.obj)
 .text.kmu_verify_kdf_input
                0x0000000000000000       0x24 /home/jordan/ncs/v2.5.1/nrfxlib/crypto/nrf_cc312_platform/lib/cortex-m33/soft-float/no-interrupts/libnrf_cc312_platform_0.9.18.a(kmu_shared.c.obj)
 .text.kmu_convert_keybits_to_keysize
                0x0000000000000000       0x2c /home/jordan/ncs/v2.5.1/nrfxlib/crypto/nrf_cc312_platform/lib/cortex-m33/soft-float/no-interrupts/libnrf_cc312_platform_0.9.18.a(kmu_shared.c.obj)
 .text.kmu_validate_kdr_slot_and_size
                0x0000000000000000       0x14 /home/jordan/ncs/v2.5.1/nrfxlib/crypto/nrf_cc312_platform/lib/cortex-m33/soft-float/no-interrupts/libnrf_cc312_platform_0.9.18.a(kmu_shared.c.obj)
 .text.kmu_load_key_chacha20
                0x0000000000000000      0x108 /home/jordan/ncs/v2.5.1/nrfxlib/crypto/nrf_cc312_platform/lib/cortex-m33/soft-float/no-interrupts/libnrf_cc312_platform_0.9.18.a(kmu_shared.c.obj)
 .text.kmu_shadow_key_derive
                0x0000000000000000       0x98 /home/jordan/ncs/v2.5.1/nrfxlib/crypto/nrf_cc312_platform/lib/cortex-m33/soft-float/no-interrupts/libnrf_cc312_platform_0.9.18.a(kmu_shared.c.obj)
 .text          0x0000000000000000        0x0 /home/jordan/ncs/v2.5.1/nrfxlib/crypto/nrf_cc312_platform/lib/cortex-m33/soft-float/no-interrupts/libnrf_cc312_platform_0.9.18.a(cc_platform_keys.c.obj)
 .data          0x0000000000000000        0x0 /home/jordan/ncs/v2.5.1/nrfxlib/crypto/nrf_cc312_platform/lib/cortex-m33/soft-float/no-interrupts/libnrf_cc312_platform_0.9.18.a(cc_platform_keys.c.obj)
 .bss           0x0000000000000000        0x0 /home/jordan/ncs/v2.5.1/nrfxlib/crypto/nrf_cc312_platform/lib/cortex-m33/soft-float/no-interrupts/libnrf_cc312_platform_0.9.18.a(cc_platform_keys.c.obj)
 .text.write_invalid_chacha20_key
                0x0000000000000000       0x40 /home/jordan/ncs/v2.5.1/nrfxlib/crypto/nrf_cc312_platform/lib/cortex-m33/soft-float/no-interrupts/libnrf_cc312_platform_0.9.18.a(cc_platform_keys.c.obj)
 .text.cc_platform_prepare_chacha_key
                0x0000000000000000       0x4c /home/jordan/ncs/v2.5.1/nrfxlib/crypto/nrf_cc312_platform/lib/cortex-m33/soft-float/no-interrupts/libnrf_cc312_platform_0.9.18.a(cc_platform_keys.c.obj)
 .text.cc_platform_load_chacha_key
                0x0000000000000000       0x68 /home/jordan/ncs/v2.5.1/nrfxlib/crypto/nrf_cc312_platform/lib/cortex-m33/soft-float/no-interrupts/libnrf_cc312_platform_0.9.18.a(cc_platform_keys.c.obj)
 .text.cc_platform_cleanup_chacha_key
                0x0000000000000000       0x3c /home/jordan/ncs/v2.5.1/nrfxlib/crypto/nrf_cc312_platform/lib/cortex-m33/soft-float/no-interrupts/libnrf_cc312_platform_0.9.18.a(cc_platform_keys.c.obj)
 .comment       0x0000000000000000       0x21 /home/jordan/ncs/v2.5.1/nrfxlib/crypto/nrf_cc312_platform/lib/cortex-m33/soft-float/no-interrupts/libnrf_cc312_platform_0.9.18.a(cc_platform_keys.c.obj)
 .ARM.attributes
                0x0000000000000000       0x34 /home/jordan/ncs/v2.5.1/nrfxlib/crypto/nrf_cc312_platform/lib/cortex-m33/soft-float/no-interrupts/libnrf_cc312_platform_0.9.18.a(cc_platform_keys.c.obj)
 .text          0x0000000000000000        0x0 /home/jordan/ncs/v2.5.1/nrfxlib/crypto/nrf_cc312_platform/lib/cortex-m33/soft-float/no-interrupts/libnrf_cc312_platform_0.9.18.a(cc_util_cmac.c.obj)
 .data          0x0000000000000000        0x0 /home/jordan/ncs/v2.5.1/nrfxlib/crypto/nrf_cc312_platform/lib/cortex-m33/soft-float/no-interrupts/libnrf_cc312_platform_0.9.18.a(cc_util_cmac.c.obj)
 .bss           0x0000000000000000        0x0 /home/jordan/ncs/v2.5.1/nrfxlib/crypto/nrf_cc312_platform/lib/cortex-m33/soft-float/no-interrupts/libnrf_cc312_platform_0.9.18.a(cc_util_cmac.c.obj)
 .text.UtilCmacDeriveKey
                0x0000000000000000       0xf0 /home/jordan/ncs/v2.5.1/nrfxlib/crypto/nrf_cc312_platform/lib/cortex-m33/soft-float/no-interrupts/libnrf_cc312_platform_0.9.18.a(cc_util_cmac.c.obj)
 .text          0x0000000000000000        0x0 /home/jordan/ncs/v2.5.1/nrfxlib/crypto/nrf_cc312_platform/lib/cortex-m33/soft-float/no-interrupts/libnrf_cc312_platform_0.9.18.a(cc_pal_buff_attr.c.obj)
 .data          0x0000000000000000        0x0 /home/jordan/ncs/v2.5.1/nrfxlib/crypto/nrf_cc312_platform/lib/cortex-m33/soft-float/no-interrupts/libnrf_cc312_platform_0.9.18.a(cc_pal_buff_attr.c.obj)
 .bss           0x0000000000000000        0x0 /home/jordan/ncs/v2.5.1/nrfxlib/crypto/nrf_cc312_platform/lib/cortex-m33/soft-float/no-interrupts/libnrf_cc312_platform_0.9.18.a(cc_pal_buff_attr.c.obj)
 .data          0x0000000000000000        0x0 /home/jordan/ncs/toolchains/7795df4459/opt/zephyr-sdk/arm-zephyr-eabi/bin/../lib/gcc/arm-zephyr-eabi/12.2.0/thumb/v8-m.main/nofp/libgcc.a(cmse.o)
 .bss           0x0000000000000000        0x0 /home/jordan/ncs/toolchains/7795df4459/opt/zephyr-sdk/arm-zephyr-eabi/bin/../lib/gcc/arm-zephyr-eabi/12.2.0/thumb/v8-m.main/nofp/libgcc.a(cmse.o)
 .text          0x0000000000000000        0x0 /home/jordan/ncs/toolchains/7795df4459/opt/zephyr-sdk/arm-zephyr-eabi/bin/../lib/gcc/arm-zephyr-eabi/12.2.0/../../../../arm-zephyr-eabi/lib/thumb/v8-m.main/nofp/libc_nano.a(lib_a-exit.o)
 .data          0x0000000000000000        0x0 /home/jordan/ncs/toolchains/7795df4459/opt/zephyr-sdk/arm-zephyr-eabi/bin/../lib/gcc/arm-zephyr-eabi/12.2.0/../../../../arm-zephyr-eabi/lib/thumb/v8-m.main/nofp/libc_nano.a(lib_a-exit.o)
 .bss           0x0000000000000000        0x0 /home/jordan/ncs/toolchains/7795df4459/opt/zephyr-sdk/arm-zephyr-eabi/bin/../lib/gcc/arm-zephyr-eabi/12.2.0/../../../../arm-zephyr-eabi/lib/thumb/v8-m.main/nofp/libc_nano.a(lib_a-exit.o)
 .text          0x0000000000000000        0x0 /home/jordan/ncs/toolchains/7795df4459/opt/zephyr-sdk/arm-zephyr-eabi/bin/../lib/gcc/arm-zephyr-eabi/12.2.0/../../../../arm-zephyr-eabi/lib/thumb/v8-m.main/nofp/libc_nano.a(lib_a-impure.o)
 .data          0x0000000000000000        0x0 /home/jordan/ncs/toolchains/7795df4459/opt/zephyr-sdk/arm-zephyr-eabi/bin/../lib/gcc/arm-zephyr-eabi/12.2.0/../../../../arm-zephyr-eabi/lib/thumb/v8-m.main/nofp/libc_nano.a(lib_a-impure.o)
 .bss           0x0000000000000000        0x0 /home/jordan/ncs/toolchains/7795df4459/opt/zephyr-sdk/arm-zephyr-eabi/bin/../lib/gcc/arm-zephyr-eabi/12.2.0/../../../../arm-zephyr-eabi/lib/thumb/v8-m.main/nofp/libc_nano.a(lib_a-impure.o)
 .data._impure_ptr
                0x0000000000000000        0x4 /home/jordan/ncs/toolchains/7795df4459/opt/zephyr-sdk/arm-zephyr-eabi/bin/../lib/gcc/arm-zephyr-eabi/12.2.0/../../../../arm-zephyr-eabi/lib/thumb/v8-m.main/nofp/libc_nano.a(lib_a-impure.o)
 .text          0x0000000000000000        0x0 /home/jordan/ncs/toolchains/7795df4459/opt/zephyr-sdk/arm-zephyr-eabi/bin/../lib/gcc/arm-zephyr-eabi/12.2.0/../../../../arm-zephyr-eabi/lib/thumb/v8-m.main/nofp/libc_nano.a(lib_a-init.o)
 .data          0x0000000000000000        0x0 /home/jordan/ncs/toolchains/7795df4459/opt/zephyr-sdk/arm-zephyr-eabi/bin/../lib/gcc/arm-zephyr-eabi/12.2.0/../../../../arm-zephyr-eabi/lib/thumb/v8-m.main/nofp/libc_nano.a(lib_a-init.o)
 .bss           0x0000000000000000        0x0 /home/jordan/ncs/toolchains/7795df4459/opt/zephyr-sdk/arm-zephyr-eabi/bin/../lib/gcc/arm-zephyr-eabi/12.2.0/../../../../arm-zephyr-eabi/lib/thumb/v8-m.main/nofp/libc_nano.a(lib_a-init.o)
 .text          0x0000000000000000        0x0 /home/jordan/ncs/toolchains/7795df4459/opt/zephyr-sdk/arm-zephyr-eabi/bin/../lib/gcc/arm-zephyr-eabi/12.2.0/../../../../arm-zephyr-eabi/lib/thumb/v8-m.main/nofp/libc_nano.a(lib_a-memcmp.o)
 .data          0x0000000000000000        0x0 /home/jordan/ncs/toolchains/7795df4459/opt/zephyr-sdk/arm-zephyr-eabi/bin/../lib/gcc/arm-zephyr-eabi/12.2.0/../../../../arm-zephyr-eabi/lib/thumb/v8-m.main/nofp/libc_nano.a(lib_a-memcmp.o)
 .bss           0x0000000000000000        0x0 /home/jordan/ncs/toolchains/7795df4459/opt/zephyr-sdk/arm-zephyr-eabi/bin/../lib/gcc/arm-zephyr-eabi/12.2.0/../../../../arm-zephyr-eabi/lib/thumb/v8-m.main/nofp/libc_nano.a(lib_a-memcmp.o)
 .text.memcmp   0x0000000000000000       0x20 /home/jordan/ncs/toolchains/7795df4459/opt/zephyr-sdk/arm-zephyr-eabi/bin/../lib/gcc/arm-zephyr-eabi/12.2.0/../../../../arm-zephyr-eabi/lib/thumb/v8-m.main/nofp/libc_nano.a(lib_a-memcmp.o)
 .debug_frame   0x0000000000000000       0x28 /home/jordan/ncs/toolchains/7795df4459/opt/zephyr-sdk/arm-zephyr-eabi/bin/../lib/gcc/arm-zephyr-eabi/12.2.0/../../../../arm-zephyr-eabi/lib/thumb/v8-m.main/nofp/libc_nano.a(lib_a-memcmp.o)
 .ARM.attributes
                0x0000000000000000       0x32 /home/jordan/ncs/toolchains/7795df4459/opt/zephyr-sdk/arm-zephyr-eabi/bin/../lib/gcc/arm-zephyr-eabi/12.2.0/../../../../arm-zephyr-eabi/lib/thumb/v8-m.main/nofp/libc_nano.a(lib_a-memcmp.o)
 .text          0x0000000000000000        0x0 /home/jordan/ncs/toolchains/7795df4459/opt/zephyr-sdk/arm-zephyr-eabi/bin/../lib/gcc/arm-zephyr-eabi/12.2.0/../../../../arm-zephyr-eabi/lib/thumb/v8-m.main/nofp/libc_nano.a(lib_a-memmove.o)
 .data          0x0000000000000000        0x0 /home/jordan/ncs/toolchains/7795df4459/opt/zephyr-sdk/arm-zephyr-eabi/bin/../lib/gcc/arm-zephyr-eabi/12.2.0/../../../../arm-zephyr-eabi/lib/thumb/v8-m.main/nofp/libc_nano.a(lib_a-memmove.o)
 .bss           0x0000000000000000        0x0 /home/jordan/ncs/toolchains/7795df4459/opt/zephyr-sdk/arm-zephyr-eabi/bin/../lib/gcc/arm-zephyr-eabi/12.2.0/../../../../arm-zephyr-eabi/lib/thumb/v8-m.main/nofp/libc_nano.a(lib_a-memmove.o)
 .text          0x0000000000000000        0x0 /home/jordan/ncs/toolchains/7795df4459/opt/zephyr-sdk/arm-zephyr-eabi/bin/../lib/gcc/arm-zephyr-eabi/12.2.0/thumb/v8-m.main/nofp/crtend.o
 .data          0x0000000000000000        0x0 /home/jordan/ncs/toolchains/7795df4459/opt/zephyr-sdk/arm-zephyr-eabi/bin/../lib/gcc/arm-zephyr-eabi/12.2.0/thumb/v8-m.main/nofp/crtend.o
 .bss           0x0000000000000000        0x0 /home/jordan/ncs/toolchains/7795df4459/opt/zephyr-sdk/arm-zephyr-eabi/bin/../lib/gcc/arm-zephyr-eabi/12.2.0/thumb/v8-m.main/nofp/crtend.o
 .rodata        0x0000000000000000       0x24 /home/jordan/ncs/toolchains/7795df4459/opt/zephyr-sdk/arm-zephyr-eabi/bin/../lib/gcc/arm-zephyr-eabi/12.2.0/thumb/v8-m.main/nofp/crtend.o
 .text          0x0000000000000000        0x0 /home/jordan/ncs/toolchains/7795df4459/opt/zephyr-sdk/arm-zephyr-eabi/bin/../lib/gcc/arm-zephyr-eabi/12.2.0/thumb/v8-m.main/nofp/crtn.o
 .data          0x0000000000000000        0x0 /home/jordan/ncs/toolchains/7795df4459/opt/zephyr-sdk/arm-zephyr-eabi/bin/../lib/gcc/arm-zephyr-eabi/12.2.0/thumb/v8-m.main/nofp/crtn.o
 .bss           0x0000000000000000        0x0 /home/jordan/ncs/toolchains/7795df4459/opt/zephyr-sdk/arm-zephyr-eabi/bin/../lib/gcc/arm-zephyr-eabi/12.2.0/thumb/v8-m.main/nofp/crtn.o
 .text          0x0000000000000000        0x0 /home/jordan/ncs/toolchains/7795df4459/opt/zephyr-sdk/arm-zephyr-eabi/bin/../lib/gcc/arm-zephyr-eabi/12.2.0/../../../../arm-zephyr-eabi/lib/thumb/v8-m.main/nofp/libnosys.a(_exit.o)
 .data          0x0000000000000000        0x0 /home/jordan/ncs/toolchains/7795df4459/opt/zephyr-sdk/arm-zephyr-eabi/bin/../lib/gcc/arm-zephyr-eabi/12.2.0/../../../../arm-zephyr-eabi/lib/thumb/v8-m.main/nofp/libnosys.a(_exit.o)
 .bss           0x0000000000000000        0x0 /home/jordan/ncs/toolchains/7795df4459/opt/zephyr-sdk/arm-zephyr-eabi/bin/../lib/gcc/arm-zephyr-eabi/12.2.0/../../../../arm-zephyr-eabi/lib/thumb/v8-m.main/nofp/libnosys.a(_exit.o)

Memory Configuration

Name             Origin             Length             Attributes
FLASH            0x0000000000000000 0x0000000000008000 xr
RAM              0x0000000020000000 0x0000000000008000 xrw
*default*        0x0000000000000000 0xffffffffffffffff

Linker script and memory map

LOAD /home/jordan/ncs/toolchains/7795df4459/opt/zephyr-sdk/arm-zephyr-eabi/bin/../lib/gcc/arm-zephyr-eabi/12.2.0/thumb/v8-m.main/nofp/crti.o
LOAD /home/jordan/ncs/toolchains/7795df4459/opt/zephyr-sdk/arm-zephyr-eabi/bin/../lib/gcc/arm-zephyr-eabi/12.2.0/thumb/v8-m.main/nofp/crtbegin.o
LOAD /home/jordan/ncs/toolchains/7795df4459/opt/zephyr-sdk/arm-zephyr-eabi/bin/../lib/gcc/arm-zephyr-eabi/12.2.0/../../../../arm-zephyr-eabi/lib/thumb/v8-m.main/nofp/crt0.o
LOAD secure_fw/CMakeFiles/tfm_s.dir/partitions/ns_agent_tz/psa_api_veneers_v80m.o
LOAD secure_fw/CMakeFiles/tfm_s.dir/__/platform/ext/target/nordic_nrf/common/core/startup.o
LOAD secure_fw/CMakeFiles/tfm_s.dir/__/platform/ext/target/nordic_nrf/common/core/startup_nrf5340.o
LOAD secure_fw/CMakeFiles/tfm_s.dir/__/platform/ext/common/faults.o
LOAD secure_fw/CMakeFiles/tfm_s.dir/__/generated/secure_fw/partitions/crypto/auto_generated/load_info_tfm_crypto.o
LOAD secure_fw/CMakeFiles/tfm_s.dir/__/generated/secure_fw/partitions/platform/auto_generated/load_info_tfm_platform.o
LOAD secure_fw/CMakeFiles/tfm_s.dir/partitions/ns_agent_tz/load_info_ns_agent_tz.o
LOAD secure_fw/CMakeFiles/tfm_s.dir/__/platform/ext/common/syscalls_stub.o
LOAD platform/libplatform_s.a
LOAD secure_fw/partitions/lib/runtime/libtfm_sprt.a
LOAD secure_fw/spm/libtfm_spm.a
LOAD secure_fw/partitions/crypto/libtfm_psa_rot_partition_crypto.a
LOAD platform/libplatform_crypto_keys.a
LOAD secure_fw/partitions/crypto/mbedcrypto/nrf_security_src/libcrypto_service_mbedcrypto.a
LOAD secure_fw/partitions/platform/libtfm_psa_rot_partition_platform.a
LOAD platform/libplatform_s.a
LOAD secure_fw/partitions/lib/runtime/libtfm_sprt.a
LOAD secure_fw/spm/libtfm_spm.a
LOAD secure_fw/partitions/crypto/libtfm_psa_rot_partition_crypto.a
LOAD platform/libplatform_crypto_keys.a
LOAD secure_fw/partitions/crypto/mbedcrypto/nrf_security_src/libcrypto_service_mbedcrypto.a
LOAD secure_fw/partitions/platform/libtfm_psa_rot_partition_platform.a
LOAD platform/libplatform_s.a
LOAD secure_fw/partitions/lib/runtime/libtfm_sprt.a
LOAD secure_fw/spm/libtfm_spm.a
LOAD secure_fw/partitions/crypto/libtfm_psa_rot_partition_crypto.a
LOAD platform/libplatform_crypto_keys.a
LOAD secure_fw/partitions/crypto/mbedcrypto/nrf_security_src/libcrypto_service_mbedcrypto.a
LOAD secure_fw/partitions/platform/libtfm_psa_rot_partition_platform.a
LOAD /home/jordan/ncs/v2.5.1/nrfxlib/crypto/nrf_cc312_platform/lib/cortex-m33/soft-float/no-interrupts/libnrf_cc312_platform_0.9.18.a
LOAD /home/jordan/ncs/v2.5.1/nrfxlib/crypto/nrf_oberon/lib/cortex-m33/soft-float/liboberon_mbedtls_3.0.13.a
LOAD secure_fw/partitions/crypto/mbedcrypto/nrf_security_src/libmbedcrypto_base.a
LOAD /home/jordan/ncs/v2.5.1/nrfxlib/crypto/nrf_oberon/lib/cortex-m33/soft-float/liboberon_3.0.13.a
START GROUP
LOAD /home/jordan/ncs/toolchains/7795df4459/opt/zephyr-sdk/arm-zephyr-eabi/bin/../lib/gcc/arm-zephyr-eabi/12.2.0/thumb/v8-m.main/nofp/libgcc.a
LOAD /home/jordan/ncs/toolchains/7795df4459/opt/zephyr-sdk/arm-zephyr-eabi/bin/../lib/gcc/arm-zephyr-eabi/12.2.0/../../../../arm-zephyr-eabi/lib/thumb/v8-m.main/nofp/libc_nano.a
END GROUP
START GROUP
LOAD /home/jordan/ncs/toolchains/7795df4459/opt/zephyr-sdk/arm-zephyr-eabi/bin/../lib/gcc/arm-zephyr-eabi/12.2.0/thumb/v8-m.main/nofp/libgcc.a
LOAD /home/jordan/ncs/toolchains/7795df4459/opt/zephyr-sdk/arm-zephyr-eabi/bin/../lib/gcc/arm-zephyr-eabi/12.2.0/../../../../arm-zephyr-eabi/lib/thumb/v8-m.main/nofp/libc_nano.a
END GROUP
LOAD /home/jordan/ncs/toolchains/7795df4459/opt/zephyr-sdk/arm-zephyr-eabi/bin/../lib/gcc/arm-zephyr-eabi/12.2.0/thumb/v8-m.main/nofp/crtend.o
LOAD /home/jordan/ncs/toolchains/7795df4459/opt/zephyr-sdk/arm-zephyr-eabi/bin/../lib/gcc/arm-zephyr-eabi/12.2.0/thumb/v8-m.main/nofp/crtn.o
                0x0000000000000800                __msp_stack_size__ = 0x800
START GROUP
LOAD /home/jordan/ncs/toolchains/7795df4459/opt/zephyr-sdk/arm-zephyr-eabi/bin/../lib/gcc/arm-zephyr-eabi/12.2.0/thumb/v8-m.main/nofp/libgcc.a
LOAD /home/jordan/ncs/toolchains/7795df4459/opt/zephyr-sdk/arm-zephyr-eabi/bin/../lib/gcc/arm-zephyr-eabi/12.2.0/../../../../arm-zephyr-eabi/lib/thumb/v8-m.main/nofp/libc.a
LOAD /home/jordan/ncs/toolchains/7795df4459/opt/zephyr-sdk/arm-zephyr-eabi/bin/../lib/gcc/arm-zephyr-eabi/12.2.0/../../../../arm-zephyr-eabi/lib/thumb/v8-m.main/nofp/libm.a
LOAD /home/jordan/ncs/toolchains/7795df4459/opt/zephyr-sdk/arm-zephyr-eabi/bin/../lib/gcc/arm-zephyr-eabi/12.2.0/../../../../arm-zephyr-eabi/lib/thumb/v8-m.main/nofp/libnosys.a
LOAD /home/jordan/ncs/toolchains/7795df4459/opt/zephyr-sdk/arm-zephyr-eabi/bin/../lib/gcc/arm-zephyr-eabi/12.2.0/../../../../arm-zephyr-eabi/lib/thumb/v8-m.main/nofp/libc_nano.a
END GROUP

.TFM_VECTORS    0x0000000000000000      0x154
                0x0000000000000000                __vectors_start__ = .
 *(.vectors)
 .vectors       0x0000000000000000      0x154 secure_fw/CMakeFiles/tfm_s.dir/__/platform/ext/target/nordic_nrf/common/core/startup_nrf5340.o
                0x0000000000000000                __Vectors
                0x0000000000000154                . = ALIGN (0x4)
                0x0000000000000154                __vectors_end__ = .
                0x0000000000000001                ASSERT ((. <= (ADDR (.TFM_VECTORS) + 0x154)), .TFM_VECTORS section size overflow.)
                0x0000000000000154                . = (ADDR (.TFM_VECTORS) + 0x154)

.copy.table     0x0000000000000154       0x24
                0x0000000000000154                __copy_table_start__ = .
                0x0000000000000154        0x4 LONG 0x7c40 LOADADDR (.TFM_DATA)
                0x0000000000000158        0x4 LONG 0x20001e20 ADDR (.TFM_DATA)
                0x000000000000015c        0x4 LONG 0x3d (SIZEOF (.TFM_DATA) / 0x4)
                0x0000000000000160        0x4 LONG 0x25a0 LOADADDR (.TFM_PSA_ROT_LINKER_DATA)
                0x0000000000000164        0x4 LONG 0x20000c40 ADDR (.TFM_PSA_ROT_LINKER_DATA)
                0x0000000000000168        0x4 LONG 0x0 (SIZEOF (.TFM_PSA_ROT_LINKER_DATA) / 0x4)
                0x000000000000016c        0x4 LONG 0x25a0 LOADADDR (.TFM_APP_ROT_LINKER_DATA)
                0x0000000000000170        0x4 LONG 0x20000c20 ADDR (.TFM_APP_ROT_LINKER_DATA)
                0x0000000000000174        0x4 LONG 0x0 (SIZEOF (.TFM_APP_ROT_LINKER_DATA) / 0x4)
                0x0000000000000178                __copy_table_end__ = .

.zero.table     0x0000000000000178       0x20
                0x0000000000000178                __zero_table_start__ = .
                0x0000000000000178        0x4 LONG 0x20001f20 ADDR (.TFM_BSS)
                0x000000000000017c        0x4 LONG 0x69c (SIZEOF (.TFM_BSS) / 0x4)
                0x0000000000000180        0x4 LONG 0x20000c40 ADDR (.TFM_PSA_ROT_LINKER_BSS)
                0x0000000000000184        0x4 LONG 0x478 (SIZEOF (.TFM_PSA_ROT_LINKER_BSS) / 0x4)
                0x0000000000000188        0x4 LONG 0x20000c20 ADDR (.TFM_APP_ROT_LINKER_BSS)
                0x000000000000018c        0x4 LONG 0x8 (SIZEOF (.TFM_APP_ROT_LINKER_BSS) / 0x4)
                0x0000000000000190        0x4 LONG 0x20000c00 ADDR (.TFM_SP_META_PTR)
                0x0000000000000194        0x4 LONG 0x8 (SIZEOF (.TFM_SP_META_PTR) / 0x4)
                0x0000000000000198                __zero_table_end__ = .

.TFM_SP_LOAD_LIST
                0x0000000000000198       0xc4
 *(.part_load_priority_lowest)
 .part_load_priority_lowest
                0x0000000000000198       0x30 secure_fw/CMakeFiles/tfm_s.dir/partitions/ns_agent_tz/load_info_ns_agent_tz.o
                0x0000000000000198                tfm_sp_ns_agent_tz_load
 *(.part_load_priority_low)
 *(.part_load_priority_normal)
 .part_load_priority_normal
                0x00000000000001c8       0x4c secure_fw/CMakeFiles/tfm_s.dir/__/generated/secure_fw/partitions/crypto/auto_generated/load_info_tfm_crypto.o
                0x00000000000001c8                tfm_sp_crypto_load
 .part_load_priority_normal
                0x0000000000000214       0x48 secure_fw/CMakeFiles/tfm_s.dir/__/generated/secure_fw/partitions/platform/auto_generated/load_info_tfm_platform.o
                0x0000000000000214                tfm_sp_platform_load
 *(.part_load_priority_high)
                0x0000000000000198                Image$$TFM_SP_LOAD_LIST$$RO$$Base = ADDR (.TFM_SP_LOAD_LIST)
                0x000000000000025c                Image$$TFM_SP_LOAD_LIST$$RO$$Limit = (ADDR (.TFM_SP_LOAD_LIST) + SIZEOF (.TFM_SP_LOAD_LIST))
                0x0000000000000260                . = ALIGN (0x20)
                0x0000000000000260                Image$$TFM_PSA_CODE_START$$Base = .

.TFM_PSA_ROT_LINKER
                0x0000000000000260      0x4e0
 *tfm_psa_rot_partition*:*(.text*)
 .text.tfm_crypto_clear_scratch
                0x0000000000000260       0x20 secure_fw/partitions/crypto/libtfm_psa_rot_partition_crypto.a(crypto_init.o)
 .text.tfm_crypto_init
                0x0000000000000280       0x1c secure_fw/partitions/crypto/libtfm_psa_rot_partition_crypto.a(crypto_init.o)
                0x0000000000000280                tfm_crypto_init
 .text.tfm_crypto_api_dispatcher
                0x000000000000029c       0xa4 secure_fw/partitions/crypto/libtfm_psa_rot_partition_crypto.a(crypto_init.o)
                0x000000000000029c                tfm_crypto_api_dispatcher
 .text.tfm_crypto_sfn
                0x0000000000000340      0x170 secure_fw/partitions/crypto/libtfm_psa_rot_partition_crypto.a(crypto_init.o)
                0x0000000000000340                tfm_crypto_sfn
 .text.tfm_crypto_init_alloc
                0x00000000000004b0       0x14 secure_fw/partitions/crypto/libtfm_psa_rot_partition_crypto.a(crypto_alloc.o)
                0x00000000000004b0                tfm_crypto_init_alloc
 .text.tfm_crypto_cipher_interface
                0x00000000000004c4        0x6 secure_fw/partitions/crypto/libtfm_psa_rot_partition_crypto.a(crypto_cipher.o)
                0x00000000000004c4                tfm_crypto_cipher_interface
 .text.tfm_crypto_hash_interface
                0x00000000000004ca        0x6 secure_fw/partitions/crypto/libtfm_psa_rot_partition_crypto.a(crypto_hash.o)
                0x00000000000004ca                tfm_crypto_hash_interface
 .text.tfm_crypto_mac_interface
                0x00000000000004d0        0x6 secure_fw/partitions/crypto/libtfm_psa_rot_partition_crypto.a(crypto_mac.o)
                0x00000000000004d0                tfm_crypto_mac_interface
 .text.tfm_crypto_aead_interface
                0x00000000000004d6        0x6 secure_fw/partitions/crypto/libtfm_psa_rot_partition_crypto.a(crypto_aead.o)
                0x00000000000004d6                tfm_crypto_aead_interface
 .text.tfm_crypto_asymmetric_sign_interface
                0x00000000000004dc        0x6 secure_fw/partitions/crypto/libtfm_psa_rot_partition_crypto.a(crypto_asymmetric.o)
                0x00000000000004dc                tfm_crypto_asymmetric_sign_interface
 .text.tfm_crypto_asymmetric_encrypt_interface
                0x00000000000004e2        0x6 secure_fw/partitions/crypto/libtfm_psa_rot_partition_crypto.a(crypto_asymmetric.o)
                0x00000000000004e2                tfm_crypto_asymmetric_encrypt_interface
 .text.tfm_crypto_key_derivation_interface
                0x00000000000004e8        0x6 secure_fw/partitions/crypto/libtfm_psa_rot_partition_crypto.a(crypto_key_derivation.o)
                0x00000000000004e8                tfm_crypto_key_derivation_interface
 .text.tfm_crypto_key_management_interface
                0x00000000000004ee        0x6 secure_fw/partitions/crypto/libtfm_psa_rot_partition_crypto.a(crypto_key_management.o)
                0x00000000000004ee                tfm_crypto_key_management_interface
 .text.tfm_crypto_random_interface
                0x00000000000004f4        0x8 secure_fw/partitions/crypto/libtfm_psa_rot_partition_crypto.a(crypto_rng.o)
                0x00000000000004f4                tfm_crypto_random_interface
 .text.tfm_crypto_library_key_id_init
                0x00000000000004fc        0x6 secure_fw/partitions/crypto/libtfm_psa_rot_partition_crypto.a(crypto_library.o)
                0x00000000000004fc                tfm_crypto_library_key_id_init
 *fill*         0x0000000000000502        0x2 
 .text.tfm_crypto_library_get_info
                0x0000000000000504       0x1c secure_fw/partitions/crypto/libtfm_psa_rot_partition_crypto.a(crypto_library.o)
                0x0000000000000504                tfm_crypto_library_get_info
 .text.tfm_crypto_core_library_init
                0x0000000000000520       0x14 secure_fw/partitions/crypto/libtfm_psa_rot_partition_crypto.a(crypto_library.o)
                0x0000000000000520                tfm_crypto_core_library_init
 .text.tfm_platform_service_sfn
                0x0000000000000534      0x114 secure_fw/partitions/platform/libtfm_psa_rot_partition_platform.a(platform_sp.o)
                0x0000000000000534                tfm_platform_service_sfn
 .text.platform_sp_init
                0x0000000000000648        0x4 secure_fw/partitions/platform/libtfm_psa_rot_partition_platform.a(platform_sp.o)
                0x0000000000000648                platform_sp_init
 .text.tfm_builtin_key_loader_init
                0x000000000000064c       0xe0 secure_fw/partitions/crypto/libtfm_psa_rot_partition_crypto.a(tfm_builtin_key_loader.o)
                0x000000000000064c                tfm_builtin_key_loader_init
 *tfm_psa_rot_partition*:*(.rodata*)
 .rodata.tfm_crypto_library_get_info.str1.1
                0x000000000000072c        0xf secure_fw/partitions/crypto/libtfm_psa_rot_partition_crypto.a(crypto_library.o)
 *(TFM_*_PSA-ROT_ATTR_FN)
                0x0000000000000740                . = ALIGN (0x20)
 *fill*         0x000000000000073b        0x5 
                0x0000000000000260                Image$$TFM_PSA_ROT_LINKER$$RO$$Base = ADDR (.TFM_PSA_ROT_LINKER)
                0x0000000000000740                Image$$TFM_PSA_ROT_LINKER$$RO$$Limit = (ADDR (.TFM_PSA_ROT_LINKER) + SIZEOF (.TFM_PSA_ROT_LINKER))
                0x0000000000000260                Image$$TFM_PSA_ROT_LINKER$$Base = ADDR (.TFM_PSA_ROT_LINKER)
                0x0000000000000740                Image$$TFM_PSA_ROT_LINKER$$Limit = (ADDR (.TFM_PSA_ROT_LINKER) + SIZEOF (.TFM_PSA_ROT_LINKER))
                0x0000000000000740                Image$$TFM_PSA_CODE_END$$Base = .
                0x0000000000000740                Image$$TFM_APP_CODE_START$$Base = .

.TFM_APP_ROT_LINKER
                0x0000000000000740        0x0
 *tfm_app_rot_partition*:*(.text*)
 *tfm_app_rot_partition*:*(.rodata*)
 *(TFM_*_APP-ROT_ATTR_FN)
                0x0000000000000740                . = ALIGN (0x20)
                0x0000000000000740                Image$$TFM_APP_ROT_LINKER$$RO$$Base = ADDR (.TFM_APP_ROT_LINKER)
                0x0000000000000740                Image$$TFM_APP_ROT_LINKER$$RO$$Limit = (ADDR (.TFM_APP_ROT_LINKER) + SIZEOF (.TFM_APP_ROT_LINKER))
                0x0000000000000740                Image$$TFM_APP_ROT_LINKER$$Base = ADDR (.TFM_APP_ROT_LINKER)
                0x0000000000000740                Image$$TFM_APP_ROT_LINKER$$Limit = (ADDR (.TFM_APP_ROT_LINKER) + SIZEOF (.TFM_APP_ROT_LINKER))
                0x0000000000000740                Image$$TFM_APP_CODE_END$$Base = .

.ARM.extab
 *(.ARM.extab* .gnu.linkonce.armextab.*)
                0x0000000000000740                __exidx_start = .

.ARM.exidx      0x0000000000000740        0x8
 *(.ARM.exidx* .gnu.linkonce.armexidx.*)
 .ARM.exidx     0x0000000000000740        0x8 /home/jordan/ncs/toolchains/7795df4459/opt/zephyr-sdk/arm-zephyr-eabi/bin/../lib/gcc/arm-zephyr-eabi/12.2.0/../../../../arm-zephyr-eabi/lib/thumb/v8-m.main/nofp/crt0.o
                                         0x10 (size before relaxing)
                0x0000000000000748                __exidx_end = .

.ER_TFM_CODE    0x0000000000000748     0x1e40
 *startup*(.text*)
 .text.default_irq_handler
                0x0000000000000748        0x4 secure_fw/CMakeFiles/tfm_s.dir/__/platform/ext/target/nordic_nrf/common/core/startup.o
                0x0000000000000748                default_irq_handler
 *fill*         0x000000000000074c        0x4 
 .text.Reset_Handler
                0x0000000000000750       0xa4 secure_fw/CMakeFiles/tfm_s.dir/__/platform/ext/target/nordic_nrf/common/core/startup.o
                0x0000000000000750                Reset_Handler
 .text.default_tfm_IRQHandler
                0x00000000000007f4        0x6 secure_fw/CMakeFiles/tfm_s.dir/__/platform/ext/target/nordic_nrf/common/core/startup_nrf5340.o
                0x00000000000007f4                TIMER2_IRQHandler
                0x00000000000007f4                DebugMon_Handler
                0x00000000000007f4                SPIM4_IRQHandler
                0x00000000000007f4                RTC0_IRQHandler
                0x00000000000007f4                SERIAL1_IRQHandler
                0x00000000000007f4                SysTick_Handler
                0x00000000000007f4                PWM1_IRQHandler
                0x00000000000007f4                SERIAL3_IRQHandler
                0x00000000000007f4                NMI_Handler
                0x00000000000007f4                WDT0_IRQHandler
                0x00000000000007f4                I2S0_IRQHandler
                0x00000000000007f4                default_tfm_IRQHandler
                0x00000000000007f4                IPC_IRQHandler
                0x00000000000007f4                SERIAL2_IRQHandler
                0x00000000000007f4                PWM3_IRQHandler
                0x00000000000007f4                QDEC1_IRQHandler
                0x00000000000007f4                FPU_IRQHandler
                0x00000000000007f4                USBD_IRQHandler
                0x00000000000007f4                EGU3_IRQHandler
                0x00000000000007f4                KMU_IRQHandler
                0x00000000000007f4                CRYPTOCELL_IRQHandler
                0x00000000000007f4                EGU2_IRQHandler
                0x00000000000007f4                TIMER0_IRQHandler
                0x00000000000007f4                CACHE_IRQHandler
                0x00000000000007f4                EGU4_IRQHandler
                0x00000000000007f4                EGU0_IRQHandler
                0x00000000000007f4                GPIOTE1_IRQHandler
                0x00000000000007f4                TIMER1_IRQHandler
                0x00000000000007f4                PWM2_IRQHandler
                0x00000000000007f4                EGU1_IRQHandler
                0x00000000000007f4                EGU5_IRQHandler
                0x00000000000007f4                SAADC_IRQHandler
                0x00000000000007f4                GPIOTE0_IRQHandler
                0x00000000000007f4                QDEC0_IRQHandler
                0x00000000000007f4                PWM0_IRQHandler
                0x00000000000007f4                RTC1_IRQHandler
                0x00000000000007f4                SERIAL0_IRQHandler
                0x00000000000007f4                USBREGULATOR_IRQHandler
                0x00000000000007f4                NFCT_IRQHandler
                0x00000000000007f4                WDT1_IRQHandler
                0x00000000000007f4                QSPI_IRQHandler
                0x00000000000007f4                COMP_LPCOMP_IRQHandler
                0x00000000000007f4                CLOCK_POWER_IRQHandler
                0x00000000000007f4                PDM0_IRQHandler
 *libplatform_s*:*(.text*)
 *fill*         0x00000000000007fa        0x2 
 .text.nrf53_errata_42
                0x00000000000007fc       0x24 platform/libplatform_s.a(system_nrf5340_application.o)
 .text.SystemInit
                0x0000000000000820      0x1d0 platform/libplatform_s.a(system_nrf5340_application.o)
                0x0000000000000820                SystemInit
 .text.mpu_armv8m_enable
                0x00000000000009f0       0x34 platform/libplatform_s.a(mpu_armv8m_drv.o)
                0x00000000000009f0                mpu_armv8m_enable
 .text.mpu_armv8m_region_enable
                0x0000000000000a24       0x6a platform/libplatform_s.a(mpu_armv8m_drv.o)
                0x0000000000000a24                mpu_armv8m_region_enable
 .text.mpu_armv8m_region_disable
                0x0000000000000a8e       0x14 platform/libplatform_s.a(mpu_armv8m_drv.o)
                0x0000000000000a8e                mpu_armv8m_region_disable
 .text.mpu_armv8m_clean
                0x0000000000000aa2       0x22 platform/libplatform_s.a(mpu_armv8m_drv.o)
                0x0000000000000aa2                mpu_armv8m_clean
 .text.spu_enable_interrupts
                0x0000000000000ac4       0x10 platform/libplatform_s.a(spu.o)
                0x0000000000000ac4                spu_enable_interrupts
 .text.spu_clear_events
                0x0000000000000ad4       0x24 platform/libplatform_s.a(spu.o)
                0x0000000000000ad4                spu_clear_events
 .text.spu_regions_reset_unlocked_secure
                0x0000000000000af8       0x30 platform/libplatform_s.a(spu.o)
                0x0000000000000af8                spu_regions_reset_unlocked_secure
 .text.spu_regions_flash_config
                0x0000000000000b28       0x2c platform/libplatform_s.a(spu.o)
                0x0000000000000b28                spu_regions_flash_config
 .text.spu_regions_sram_config
                0x0000000000000b54       0x34 platform/libplatform_s.a(spu.o)
                0x0000000000000b54                spu_regions_sram_config
 .text.spu_regions_flash_config_non_secure_callable
                0x0000000000000b88       0x30 platform/libplatform_s.a(spu.o)
                0x0000000000000b88                spu_regions_flash_config_non_secure_callable
 .text.spu_regions_flash_get_base_address_in_region
                0x0000000000000bb8        0x4 platform/libplatform_s.a(spu.o)
                0x0000000000000bb8                spu_regions_flash_get_base_address_in_region
 .text.spu_regions_flash_get_last_address_in_region
                0x0000000000000bbc        0xa platform/libplatform_s.a(spu.o)
                0x0000000000000bbc                spu_regions_flash_get_last_address_in_region
 .text.spu_regions_flash_get_start_id
                0x0000000000000bc6        0x4 platform/libplatform_s.a(spu.o)
                0x0000000000000bc6                spu_regions_flash_get_start_id
 .text.spu_regions_flash_get_last_id
                0x0000000000000bca        0x4 platform/libplatform_s.a(spu.o)
                0x0000000000000bca                spu_regions_flash_get_last_id
 .text.spu_regions_flash_get_region_size
                0x0000000000000bce        0x6 platform/libplatform_s.a(spu.o)
                0x0000000000000bce                spu_regions_flash_get_region_size
 .text.spu_regions_sram_get_base_address_in_region
                0x0000000000000bd4        0xa platform/libplatform_s.a(spu.o)
                0x0000000000000bd4                spu_regions_sram_get_base_address_in_region
 *fill*         0x0000000000000bde        0x2 
 .text.spu_regions_sram_get_last_address_in_region
                0x0000000000000be0        0xc platform/libplatform_s.a(spu.o)
                0x0000000000000be0                spu_regions_sram_get_last_address_in_region
 .text.spu_regions_sram_get_start_id
                0x0000000000000bec        0x4 platform/libplatform_s.a(spu.o)
                0x0000000000000bec                spu_regions_sram_get_start_id
 .text.spu_regions_sram_get_last_id
                0x0000000000000bf0        0x4 platform/libplatform_s.a(spu.o)
                0x0000000000000bf0                spu_regions_sram_get_last_id
 .text.spu_regions_sram_get_region_size
                0x0000000000000bf4        0x6 platform/libplatform_s.a(spu.o)
                0x0000000000000bf4                spu_regions_sram_get_region_size
 *fill*         0x0000000000000bfa        0x2 
 .text.spu_peripheral_config_non_secure
                0x0000000000000bfc       0x18 platform/libplatform_s.a(spu.o)
                0x0000000000000bfc                spu_peripheral_config_non_secure
 .text.tfm_hal_platform_init
                0x0000000000000c14       0x30 platform/libplatform_s.a(tfm_hal_platform.o)
                0x0000000000000c14                tfm_hal_platform_init
 .text.tfm_plat_otp_init
                0x0000000000000c44        0x4 platform/libplatform_s.a(dummy_otp.o)
                0x0000000000000c44                tfm_plat_otp_init
 .text.tfm_plat_provisioning_is_required
                0x0000000000000c48        0x4 platform/libplatform_s.a(dummy_provisioning.o)
                0x0000000000000c48                tfm_plat_provisioning_is_required
 .text.tfm_plat_provisioning_perform
                0x0000000000000c4c        0x4 platform/libplatform_s.a(dummy_provisioning.o)
                0x0000000000000c4c                tfm_plat_provisioning_perform
 .text.tfm_plat_provisioning_check_for_dummy_keys
                0x0000000000000c50        0x2 platform/libplatform_s.a(dummy_provisioning.o)
                0x0000000000000c50                tfm_plat_provisioning_check_for_dummy_keys
 *fill*         0x0000000000000c52        0x2 
 .text.tfm_platform_hal_system_reset
                0x0000000000000c54       0x24 platform/libplatform_s.a(tfm_platform_system.o)
                0x0000000000000c54                tfm_platform_hal_system_reset
 .text.tfm_platform_hal_ioctl
                0x0000000000000c78       0x18 platform/libplatform_s.a(tfm_platform_system.o)
                0x0000000000000c78                tfm_platform_hal_ioctl
 .text.tfm_hal_system_reset
                0x0000000000000c90       0x24 platform/libplatform_s.a(tfm_hal_reset_halt.o)
                0x0000000000000c90                tfm_hal_system_reset
 .text.tfm_platform_hal_read_service
                0x0000000000000cb4       0x60 platform/libplatform_s.a(tfm_platform_hal_ioctl.o)
                0x0000000000000cb4                tfm_platform_hal_read_service
 .text.tfm_platform_hal_gpio_service
                0x0000000000000d14       0x88 platform/libplatform_s.a(tfm_platform_hal_ioctl.o)
                0x0000000000000d14                tfm_platform_hal_gpio_service
 *libtfm_spm*:*(.text*)
 .text.tfm_core_panic
                0x0000000000000d9c        0x4 secure_fw/spm/libtfm_spm.a(utilities.o)
                0x0000000000000d9c                tfm_core_panic
 .text.startup.main
                0x0000000000000da0       0x50 secure_fw/spm/libtfm_spm.a(main.o)
                0x0000000000000da0                main
 .text.tfm_core_svc_handler
                0x0000000000000df0       0x70 secure_fw/spm/libtfm_spm.a(tfm_core_svcalls_ipc.o)
                0x0000000000000df0                tfm_core_svc_handler
 .text.tfm_core_handler_mode
                0x0000000000000e60        0x4 secure_fw/spm/libtfm_spm.a(tfm_core_svcalls_ipc.o)
                0x0000000000000e60                tfm_core_handler_mode
 .text.arch_non_preempt_call
                0x0000000000000e64       0x64 secure_fw/spm/libtfm_spm.a(tfm_arch_v8m_main.o)
                0x0000000000000e64                arch_non_preempt_call
 .text.PendSV_Handler
                0x0000000000000ec8       0x52 secure_fw/spm/libtfm_spm.a(tfm_arch_v8m_main.o)
                0x0000000000000ec8                PendSV_Handler
 *fill*         0x0000000000000f1a        0x2 
 .text.SVC_Handler
                0x0000000000000f1c       0x68 secure_fw/spm/libtfm_spm.a(tfm_arch_v8m_main.o)
                0x0000000000000f1c                SVC_Handler
 .text.tfm_arch_set_secure_exception_priorities
                0x0000000000000f84       0x28 secure_fw/spm/libtfm_spm.a(tfm_arch_v8m_main.o)
                0x0000000000000f84                tfm_arch_set_secure_exception_priorities
 .text.tfm_arch_config_extensions
                0x0000000000000fac        0x2 secure_fw/spm/libtfm_spm.a(tfm_arch_v8m_main.o)
                0x0000000000000fac                tfm_arch_config_extensions
 *fill*         0x0000000000000fae        0x2 
 .text.ns_agent_tz_main
                0x0000000000000fb0       0x30 secure_fw/spm/libtfm_spm.a(ns_agent_tz_v80m.o)
                0x0000000000000fb0                ns_agent_tz_main
 .text.tfm_hal_bind_boundary
                0x0000000000000fe0       0x46 secure_fw/spm/libtfm_spm.a(tfm_hal_isolation.o)
                0x0000000000000fe0                tfm_hal_bind_boundary
 .text.tfm_hal_activate_boundary
                0x0000000000001026       0x1c secure_fw/spm/libtfm_spm.a(tfm_hal_isolation.o)
                0x0000000000001026                tfm_hal_activate_boundary
 .text.tfm_hal_memory_check
                0x0000000000001042      0x126 secure_fw/spm/libtfm_spm.a(tfm_hal_isolation.o)
                0x0000000000001042                tfm_hal_memory_check
 .text.mpu_init_cfg
                0x0000000000001168      0x11c secure_fw/spm/libtfm_spm.a(tfm_hal_isolation.o)
                0x0000000000001168                mpu_init_cfg
 .text.tfm_hal_set_up_static_boundaries
                0x0000000000001284       0x2a secure_fw/spm/libtfm_spm.a(tfm_hal_isolation.o)
                0x0000000000001284                tfm_hal_set_up_static_boundaries
 .text.tfm_hal_boundary_need_switch
                0x00000000000012ae       0x1a secure_fw/spm/libtfm_spm.a(tfm_hal_isolation.o)
                0x00000000000012ae                tfm_hal_boundary_need_switch
 .text.SPU_Handler
                0x00000000000012c8       0x2c secure_fw/spm/libtfm_spm.a(faults.o)
                0x00000000000012c8                SPU_Handler
 .text.SPU_IRQHandler
                0x00000000000012f4        0x6 secure_fw/spm/libtfm_spm.a(faults.o)
                0x00000000000012f4                SPU_IRQHandler
 *fill*         0x00000000000012fa        0x2 
 .text.nrf_gpio_pin_control_select.constprop.0
                0x00000000000012fc       0x1c secure_fw/spm/libtfm_spm.a(target_cfg.o)
 .text.enable_fault_handlers
                0x0000000000001318       0x14 secure_fw/spm/libtfm_spm.a(target_cfg.o)
                0x0000000000001318                enable_fault_handlers
 .text.system_reset_cfg
                0x000000000000132c       0x18 secure_fw/spm/libtfm_spm.a(target_cfg.o)
                0x000000000000132c                system_reset_cfg
 .text.init_debug
                0x0000000000001344       0x28 secure_fw/spm/libtfm_spm.a(target_cfg.o)
                0x0000000000001344                init_debug
 .text.nvic_interrupt_target_state_cfg
                0x000000000000136c       0x30 secure_fw/spm/libtfm_spm.a(target_cfg.o)
                0x000000000000136c                nvic_interrupt_target_state_cfg
 .text.nvic_interrupt_enable
                0x000000000000139c       0x18 secure_fw/spm/libtfm_spm.a(target_cfg.o)
                0x000000000000139c                nvic_interrupt_enable
 .text.sau_and_idau_cfg
                0x00000000000013b4       0x20 secure_fw/spm/libtfm_spm.a(target_cfg.o)
                0x00000000000013b4                sau_and_idau_cfg
 .text.spu_init_cfg
                0x00000000000013d4       0x44 secure_fw/spm/libtfm_spm.a(target_cfg.o)
                0x00000000000013d4                spu_init_cfg
 .text.spu_periph_init_cfg
                0x0000000000001418      0x23c secure_fw/spm/libtfm_spm.a(target_cfg.o)
                0x0000000000001418                spu_periph_init_cfg
 .text.tfm_core_validate_boot_data
                0x0000000000001654        0xc secure_fw/spm/libtfm_spm.a(tfm_boot_data.o)
                0x0000000000001654                tfm_core_validate_boot_data
 .text.tfm_core_get_boot_data_handler
                0x0000000000001660       0x34 secure_fw/spm/libtfm_spm.a(tfm_boot_data.o)
                0x0000000000001660                tfm_core_get_boot_data_handler
 .text.tfm_arch_free_msp_and_exc_ret
                0x0000000000001694        0x8 secure_fw/spm/libtfm_spm.a(tfm_arch.o)
                0x0000000000001694                tfm_arch_free_msp_and_exc_ret
 .text.tfm_arch_set_context_ret_code
                0x000000000000169c       0x14 secure_fw/spm/libtfm_spm.a(tfm_arch.o)
                0x000000000000169c                tfm_arch_set_context_ret_code
 .text.tfm_arch_trigger_pendsv
                0x00000000000016b0       0x18 secure_fw/spm/libtfm_spm.a(tfm_arch.o)
                0x00000000000016b0                tfm_arch_trigger_pendsv
 .text.tfm_arch_init_context
                0x00000000000016c8       0x54 secure_fw/spm/libtfm_spm.a(tfm_arch.o)
                0x00000000000016c8                tfm_arch_init_context
 .text.tfm_arch_refresh_hardware_context
                0x000000000000171c       0x12 secure_fw/spm/libtfm_spm.a(tfm_arch.o)
                0x000000000000171c                tfm_arch_refresh_hardware_context
 *fill*         0x000000000000172e        0x2 
 .text.connection_to_handle
                0x0000000000001730       0x20 secure_fw/spm/libtfm_spm.a(spm_ipc.o)
                0x0000000000001730                connection_to_handle
 .text.handle_to_connection
                0x0000000000001750       0x10 secure_fw/spm/libtfm_spm.a(spm_ipc.o)
                0x0000000000001750                handle_to_connection
 .text.spm_allocate_connection
                0x0000000000001760       0x20 secure_fw/spm/libtfm_spm.a(spm_ipc.o)
                0x0000000000001760                spm_allocate_connection
 .text.spm_validate_connection
                0x0000000000001780       0x1c secure_fw/spm/libtfm_spm.a(spm_ipc.o)
                0x0000000000001780                spm_validate_connection
 .text.spm_free_connection
                0x000000000000179c       0x1c secure_fw/spm/libtfm_spm.a(spm_ipc.o)
                0x000000000000179c                spm_free_connection
 .text.spm_get_handle_by_signal
                0x00000000000017b8       0x46 secure_fw/spm/libtfm_spm.a(spm_ipc.o)
                0x00000000000017b8                spm_get_handle_by_signal
 *fill*         0x00000000000017fe        0x2 
 .text.tfm_spm_get_service_by_sid
                0x0000000000001800       0x2c secure_fw/spm/libtfm_spm.a(spm_ipc.o)
                0x0000000000001800                tfm_spm_get_service_by_sid
 .text.tfm_spm_check_client_version
                0x000000000000182c       0x24 secure_fw/spm/libtfm_spm.a(spm_ipc.o)
                0x000000000000182c                tfm_spm_check_client_version
 .text.tfm_spm_check_authorization
                0x0000000000001850       0x48 secure_fw/spm/libtfm_spm.a(spm_ipc.o)
                0x0000000000001850                tfm_spm_check_authorization
 .text.spm_fill_message
                0x0000000000001898       0x30 secure_fw/spm/libtfm_spm.a(spm_ipc.o)
                0x0000000000001898                spm_fill_message
 .text.tfm_spm_partition_get_running_partition_id
                0x00000000000018c8       0x20 secure_fw/spm/libtfm_spm.a(spm_ipc.o)
                0x00000000000018c8                tfm_spm_partition_get_running_partition_id
 .text.spm_msg_handle_to_connection
                0x00000000000018e8       0x28 secure_fw/spm/libtfm_spm.a(spm_ipc.o)
                0x00000000000018e8                spm_msg_handle_to_connection
 .text.tfm_spm_is_ns_caller
                0x0000000000001910       0x20 secure_fw/spm/libtfm_spm.a(spm_ipc.o)
                0x0000000000001910                tfm_spm_is_ns_caller
 .text.tfm_spm_get_client_id
                0x0000000000001930       0x20 secure_fw/spm/libtfm_spm.a(spm_ipc.o)
                0x0000000000001930                tfm_spm_get_client_id
 .text.tfm_spm_init
                0x0000000000001950       0x74 secure_fw/spm/libtfm_spm.a(spm_ipc.o)
                0x0000000000001950                tfm_spm_init
 .text.update_caller_outvec_len
                0x00000000000019c4       0x24 secure_fw/spm/libtfm_spm.a(spm_ipc.o)
                0x00000000000019c4                update_caller_outvec_len
 .text.cross_call_entering_c
                0x00000000000019e8       0x2c secure_fw/spm/libtfm_spm.a(spm_cross_call.o)
                0x00000000000019e8                cross_call_entering_c
 .text.cross_call_exiting_c
                0x0000000000001a14       0x30 secure_fw/spm/libtfm_spm.a(spm_cross_call.o)
                0x0000000000001a14                cross_call_exiting_c
 .text.spm_interface_cross_dispatcher
                0x0000000000001a44       0x3c secure_fw/spm/libtfm_spm.a(spm_cross_call.o)
                0x0000000000001a44                spm_interface_cross_dispatcher
 .text.load_a_partition_assuredly
                0x0000000000001a80       0xd0 secure_fw/spm/libtfm_spm.a(rom_loader.o)
                0x0000000000001a80                load_a_partition_assuredly
 .text.load_services_assuredly
                0x0000000000001b50       0xc4 secure_fw/spm/libtfm_spm.a(rom_loader.o)
                0x0000000000001b50                load_services_assuredly
 .text.load_irqs_assuredly
                0x0000000000001c14        0x2 secure_fw/spm/libtfm_spm.a(rom_loader.o)
                0x0000000000001c14                load_irqs_assuredly
 .text.spm_handle_programmer_errors
                0x0000000000001c16       0x18 secure_fw/spm/libtfm_spm.a(psa_api.o)
                0x0000000000001c16                spm_handle_programmer_errors
 .text.tfm_spm_get_lifecycle_state
                0x0000000000001c2e        0x4 secure_fw/spm/libtfm_spm.a(psa_api.o)
                0x0000000000001c2e                tfm_spm_get_lifecycle_state
 *fill*         0x0000000000001c32        0x2 
 .text.tfm_spm_partition_psa_wait
                0x0000000000001c34       0x38 secure_fw/spm/libtfm_spm.a(psa_api.o)
                0x0000000000001c34                tfm_spm_partition_psa_wait
 .text.tfm_spm_partition_psa_get
                0x0000000000001c6c       0x64 secure_fw/spm/libtfm_spm.a(psa_api.o)
                0x0000000000001c6c                tfm_spm_partition_psa_get
 .text.tfm_spm_partition_psa_reply
                0x0000000000001cd0       0x9a secure_fw/spm/libtfm_spm.a(psa_api.o)
                0x0000000000001cd0                tfm_spm_partition_psa_reply
 .text.tfm_spm_partition_psa_panic
                0x0000000000001d6a        0x4 secure_fw/spm/libtfm_spm.a(psa_api.o)
                0x0000000000001d6a                tfm_spm_partition_psa_panic
 .text.query_state
                0x0000000000001d6e       0x40 secure_fw/spm/libtfm_spm.a(backend_ipc.o)
 *fill*         0x0000000000001dae        0x2 
 .text.backend_init_comp_assuredly
                0x0000000000001db0       0xe0 secure_fw/spm/libtfm_spm.a(backend_ipc.o)
                0x0000000000001db0                backend_init_comp_assuredly
 .text.backend_system_run
                0x0000000000001e90       0x44 secure_fw/spm/libtfm_spm.a(backend_ipc.o)
                0x0000000000001e90                backend_system_run
 .text.backend_wait_signals
                0x0000000000001ed4       0x20 secure_fw/spm/libtfm_spm.a(backend_ipc.o)
                0x0000000000001ed4                backend_wait_signals
 .text.backend_assert_signal
                0x0000000000001ef4       0x20 secure_fw/spm/libtfm_spm.a(backend_ipc.o)
                0x0000000000001ef4                backend_assert_signal
 .text.backend_messaging
                0x0000000000001f14       0x32 secure_fw/spm/libtfm_spm.a(backend_ipc.o)
                0x0000000000001f14                backend_messaging
 .text.backend_replying
                0x0000000000001f46       0x10 secure_fw/spm/libtfm_spm.a(backend_ipc.o)
                0x0000000000001f46                backend_replying
 *fill*         0x0000000000001f56        0x2 
 .text.ipc_schedule
                0x0000000000001f58       0x80 secure_fw/spm/libtfm_spm.a(backend_ipc.o)
                0x0000000000001f58                ipc_schedule
 .text.tfm_pool_init
                0x0000000000001fd8       0x5c secure_fw/spm/libtfm_spm.a(tfm_pools.o)
                0x0000000000001fd8                tfm_pool_init
 .text.tfm_pool_alloc
                0x0000000000002034       0x16 secure_fw/spm/libtfm_spm.a(tfm_pools.o)
                0x0000000000002034                tfm_pool_alloc
 .text.tfm_pool_free
                0x000000000000204a        0xc secure_fw/spm/libtfm_spm.a(tfm_pools.o)
                0x000000000000204a                tfm_pool_free
 .text.is_valid_chunk_data_in_pool
                0x0000000000002056       0x28 secure_fw/spm/libtfm_spm.a(tfm_pools.o)
                0x0000000000002056                is_valid_chunk_data_in_pool
 *fill*         0x000000000000207e        0x2 
 .text.thrd_set_query_callback
                0x0000000000002080        0xc secure_fw/spm/libtfm_spm.a(thread.o)
                0x0000000000002080                thrd_set_query_callback
 .text.thrd_next
                0x000000000000208c       0x40 secure_fw/spm/libtfm_spm.a(thread.o)
                0x000000000000208c                thrd_next
 .text.thrd_set_state
                0x00000000000020cc       0x28 secure_fw/spm/libtfm_spm.a(thread.o)
                0x00000000000020cc                thrd_set_state
 .text.thrd_start
                0x00000000000020f4       0x44 secure_fw/spm/libtfm_spm.a(thread.o)
                0x00000000000020f4                thrd_start
 .text.thrd_start_scheduler
                0x0000000000002138       0x1c secure_fw/spm/libtfm_spm.a(thread.o)
                0x0000000000002138                thrd_start_scheduler
 .text.tfm_nspm_get_current_client_id
                0x0000000000002154        0x6 secure_fw/spm/libtfm_spm.a(tfm_spm_ns_ctx.o)
                0x0000000000002154                tfm_nspm_get_current_client_id
 *fill*         0x000000000000215a        0x2 
 .text.tfm_nspm_ctx_init
                0x000000000000215c       0x18 secure_fw/spm/libtfm_spm.a(tfm_spm_ns_ctx.o)
                0x000000000000215c                tfm_nspm_ctx_init
 .text.tfm_hal_platform_common_init
                0x0000000000002174       0x32 secure_fw/spm/libtfm_spm.a(tfm_hal_platform_common.o)
                0x0000000000002174                tfm_hal_platform_common_init
 *fill*         0x00000000000021a6        0x2 
 .text.tfm_hal_get_ns_VTOR
                0x00000000000021a8        0xc secure_fw/spm/libtfm_spm.a(tfm_hal_platform_common.o)
                0x00000000000021a8                tfm_hal_get_ns_VTOR
 .text.tfm_hal_get_ns_MSP
                0x00000000000021b4        0xc secure_fw/spm/libtfm_spm.a(tfm_hal_platform_common.o)
                0x00000000000021b4                tfm_hal_get_ns_MSP
 .text.tfm_hal_get_ns_entry_point
                0x00000000000021c0        0xc secure_fw/spm/libtfm_spm.a(tfm_hal_platform_common.o)
                0x00000000000021c0                tfm_hal_get_ns_entry_point
 .text.tfm_spm_client_psa_call
                0x00000000000021cc      0x200 secure_fw/spm/libtfm_spm.a(psa_call_api.o)
                0x00000000000021cc                tfm_spm_client_psa_call
 .text.tfm_spm_client_psa_framework_version
                0x00000000000023cc        0x6 secure_fw/spm/libtfm_spm.a(psa_version_api.o)
                0x00000000000023cc                tfm_spm_client_psa_framework_version
 .text.tfm_spm_client_psa_version
                0x00000000000023d2       0x2c secure_fw/spm/libtfm_spm.a(psa_version_api.o)
                0x00000000000023d2                tfm_spm_client_psa_version
 *fill*         0x00000000000023fe        0x2 
 .text.tfm_spm_partition_psa_read
                0x0000000000002400       0x7c secure_fw/spm/libtfm_spm.a(psa_read_write_skip_api.o)
                0x0000000000002400                tfm_spm_partition_psa_read
 .text.tfm_spm_partition_psa_skip
                0x000000000000247c       0x46 secure_fw/spm/libtfm_spm.a(psa_read_write_skip_api.o)
                0x000000000000247c                tfm_spm_partition_psa_skip
 *fill*         0x00000000000024c2        0x2 
 .text.tfm_spm_partition_psa_write
                0x00000000000024c4       0x78 secure_fw/spm/libtfm_spm.a(psa_read_write_skip_api.o)
                0x00000000000024c4                tfm_spm_partition_psa_write
 *libplatform_s*:*(.rodata*)
 .rodata.CSWTCH.17
                0x000000000000253c        0x4 platform/libplatform_s.a(system_nrf5340_application.o)
 .rodata.CSWTCH.5
                0x0000000000002540        0x4 platform/libplatform_s.a(system_nrf5340_application.o)
 .rodata.CSWTCH.3
                0x0000000000002544        0x4 platform/libplatform_s.a(system_nrf5340_application.o)
 .rodata.ranges
                0x0000000000002548       0x20 platform/libplatform_s.a(tfm_platform_hal_ioctl.o)
 *libtfm_spm*:*(.rodata*)
 .rodata.memory_regions
                0x0000000000002568       0x14 secure_fw/spm/libtfm_spm.a(target_cfg.o)
                0x0000000000002568                memory_regions
 .rodata.serv_pool_ea
                0x000000000000257c        0x4 secure_fw/spm/libtfm_spm.a(rom_loader.o)
 .rodata.part_pool_ea
                0x0000000000002580        0x4 secure_fw/spm/libtfm_spm.a(rom_loader.o)
 .rodata.ldinf_ea
                0x0000000000002584        0x4 secure_fw/spm/libtfm_spm.a(rom_loader.o)

.tfm_secure_data_start
                0x0000000020000000        0x0
                0x0000000020000000                . = ABSOLUTE (0x20000000)

.tfm_bl2_shared_data
                0x0000000020000000      0x400
                0x0000000020000400                . = (. + 0x400)
 *fill*         0x0000000020000000      0x400 

.msp_stack      0x0000000020000400      0x7f8
                0x0000000020000bf8                . = (. + (__msp_stack_size__ - 0x8))
 *fill*         0x0000000020000400      0x7f8 
                0x0000000020000400                Image$$ARM_LIB_STACK$$ZI$$Base = ADDR (.msp_stack)
                0x0000000020000bf8                Image$$ARM_LIB_STACK$$ZI$$Limit = (ADDR (.msp_stack) + SIZEOF (.msp_stack))

.msp_stack_seal_res
                0x0000000020000bf8        0x8
                0x0000000020000c00                . = (. + 0x8)
 *fill*         0x0000000020000bf8        0x8 
                0x0000000020000bf8                __StackSeal = ADDR (.msp_stack_seal_res)

.TFM_SP_META_PTR
                0x0000000020000c00       0x20
 *(.bss.SP_META_PTR_SPRTL_INST)
 .bss.SP_META_PTR_SPRTL_INST
                0x0000000020000c00        0x4 secure_fw/partitions/lib/runtime/libtfm_sprt.a(sprt_partition_metadata_indicator.o)
                0x0000000020000c00                p_partition_metadata
                0x0000000020000c20                . = ALIGN (0x20)
 *fill*         0x0000000020000c04       0x1c 
                0x0000000020000c00                Image$$TFM_SP_META_PTR$$ZI$$Base = ADDR (.TFM_SP_META_PTR)
                0x0000000020000c20                Image$$TFM_SP_META_PTR$$ZI$$Limit = (ADDR (.TFM_SP_META_PTR) + SIZEOF (.TFM_SP_META_PTR))
                0x0000000020000c20                . = ALIGN (0x20)
                0x0000000020000c20                Image$$TFM_APP_RW_STACK_START$$Base = .

.TFM_APP_ROT_LINKER_DATA
                0x0000000020000c20        0x0 load address 0x00000000000025a0
 *tfm_app_rot_partition*:*(.data*)
 *(TFM_*_APP-ROT_ATTR_RW)
                0x0000000020000c20                . = ALIGN (0x4)
                0x0000000020000c20                Image$$TFM_APP_ROT_LINKER_DATA$$RW$$Base = ADDR (.TFM_APP_ROT_LINKER_DATA)
                0x0000000020000c20                Image$$TFM_APP_ROT_LINKER_DATA$$RW$$Limit = (ADDR (.TFM_APP_ROT_LINKER_DATA) + SIZEOF (.TFM_APP_ROT_LINKER_DATA))

.TFM_APP_ROT_LINKER_BSS
                0x0000000020000c20       0x20
                0x0000000020000c20                start_of_TFM_APP_ROT_LINKER = .
 *tfm_app_rot_partition*:*(.bss*)
 *tfm_app_rot_partition*:*(COMMON)
 *(TFM_*_APP-ROT_ATTR_ZI)
                0x0000000020000c24                . = (. + (. - start_of_TFM_APP_ROT_LINKER)?0x0:0x4)
 *fill*         0x0000000020000c20        0x4 
                0x0000000020000c40                . = ALIGN (0x20)
 *fill*         0x0000000020000c24       0x1c 
                0x0000000020000c20                Image$$TFM_APP_ROT_LINKER_DATA$$ZI$$Base = ADDR (.TFM_APP_ROT_LINKER_BSS)
                0x0000000020000c40                Image$$TFM_APP_ROT_LINKER_DATA$$ZI$$Limit = (ADDR (.TFM_APP_ROT_LINKER_BSS) + SIZEOF (.TFM_APP_ROT_LINKER_BSS))
                0x0000000020000c40                Image$$TFM_APP_RW_STACK_END$$Base = .
                0x0000000020000c40                Image$$TFM_PSA_RW_STACK_START$$Base = .

.TFM_PSA_ROT_LINKER_DATA
                0x0000000020000c40        0x0 load address 0x00000000000025a0
 *tfm_psa_rot_partition*:*(.data*)
 *(TFM_*_PSA-ROT_ATTR_RW)
                0x0000000020000c40                . = ALIGN (0x4)
                0x0000000020000c40                Image$$TFM_PSA_ROT_LINKER_DATA$$RW$$Base = ADDR (.TFM_PSA_ROT_LINKER_DATA)
                0x0000000020000c40                Image$$TFM_PSA_ROT_LINKER_DATA$$RW$$Limit = (ADDR (.TFM_PSA_ROT_LINKER_DATA) + SIZEOF (.TFM_PSA_ROT_LINKER_DATA))

.TFM_PSA_ROT_LINKER_BSS
                0x0000000020000c40     0x11e0
                0x0000000020000c40                start_of_TFM_PSA_ROT_LINKER = .
 *tfm_psa_rot_partition*:*(.bss*)
 .bss.scratch   0x0000000020000c40      0x408 secure_fw/partitions/crypto/libtfm_psa_rot_partition_crypto.a(crypto_init.o)
 .bss.operations
                0x0000000020001048       0x28 secure_fw/partitions/crypto/libtfm_psa_rot_partition_crypto.a(crypto_alloc.o)
 .bss.mbedtls_mem_buf
                0x0000000020001070        0x1 secure_fw/partitions/crypto/libtfm_psa_rot_partition_crypto.a(crypto_library.o)
 .bss.mbedtls_version_full
                0x0000000020001071       0x12 secure_fw/partitions/crypto/libtfm_psa_rot_partition_crypto.a(crypto_library.o)
 *fill*         0x0000000020001083        0x5 
 .bss.tfm_sp_crypto_stack
                0x0000000020001088      0x800 secure_fw/partitions/crypto/libtfm_psa_rot_partition_crypto.a(intermedia_tfm_crypto.o)
                0x0000000020001088                tfm_sp_crypto_stack
 .bss.tfm_sp_platform_stack
                0x0000000020001888      0x500 secure_fw/partitions/platform/libtfm_psa_rot_partition_platform.a(intermedia_tfm_platform.o)
                0x0000000020001888                tfm_sp_platform_stack
 .bss.g_builtin_key_slots
                0x0000000020001d88       0x90 secure_fw/partitions/crypto/libtfm_psa_rot_partition_crypto.a(tfm_builtin_key_loader.o)
 *tfm_psa_rot_partition*:*(COMMON)
 *(TFM_*_PSA-ROT_ATTR_ZI)
                0x0000000020001e18                . = (. + (. - start_of_TFM_PSA_ROT_LINKER)?0x0:0x4)
                0x0000000020001e20                . = ALIGN (0x20)
 *fill*         0x0000000020001e18        0x8 
                0x0000000020000c40                Image$$TFM_PSA_ROT_LINKER_DATA$$ZI$$Base = ADDR (.TFM_PSA_ROT_LINKER_BSS)
                0x0000000020001e20                Image$$TFM_PSA_ROT_LINKER_DATA$$ZI$$Limit = (ADDR (.TFM_PSA_ROT_LINKER_BSS) + SIZEOF (.TFM_PSA_ROT_LINKER_BSS))
                0x0000000020001e20                Image$$TFM_PSA_RW_STACK_END$$Base = .

.TFM_UNPRIV_CODE
                0x00000000000025a0     0x3540
 *(SFN)
 SFN            0x00000000000025a0       0x88 secure_fw/CMakeFiles/tfm_s.dir/partitions/ns_agent_tz/psa_api_veneers_v80m.o
                0x00000000000025a0                __acle_se_tfm_psa_framework_version_veneer
                0x00000000000025be                __acle_se_tfm_psa_version_veneer
                0x00000000000025dc                __acle_se_tfm_psa_call_veneer
                0x00000000000025fe                __acle_se_tfm_psa_connect_veneer
                0x0000000000002610                __acle_se_tfm_psa_close_veneer
 *(.text*)
 .text          0x0000000000002628       0x88 /home/jordan/ncs/toolchains/7795df4459/opt/zephyr-sdk/arm-zephyr-eabi/bin/../lib/gcc/arm-zephyr-eabi/12.2.0/thumb/v8-m.main/nofp/crtbegin.o
 .text          0x00000000000026b0       0x7c /home/jordan/ncs/toolchains/7795df4459/opt/zephyr-sdk/arm-zephyr-eabi/bin/../lib/gcc/arm-zephyr-eabi/12.2.0/../../../../arm-zephyr-eabi/lib/thumb/v8-m.main/nofp/crt0.o
                0x00000000000026b0                _stack_init
                0x00000000000026b8                _mainCRTStartup
                0x00000000000026b8                _start
 .text.clear_caller_context
                0x000000000000272c        0x8 secure_fw/CMakeFiles/tfm_s.dir/partitions/ns_agent_tz/psa_api_veneers_v80m.o
 .text.C_HardFault_Handler
                0x0000000000002734        0x4 secure_fw/CMakeFiles/tfm_s.dir/__/platform/ext/common/faults.o
                0x0000000000002734                C_HardFault_Handler
 .text.HardFault_Handler
                0x0000000000002738        0x6 secure_fw/CMakeFiles/tfm_s.dir/__/platform/ext/common/faults.o
                0x0000000000002738                HardFault_Handler
 .text.C_MemManage_Handler
                0x000000000000273e        0x4 secure_fw/CMakeFiles/tfm_s.dir/__/platform/ext/common/faults.o
                0x000000000000273e                C_MemManage_Handler
 .text.MemManage_Handler
                0x0000000000002742        0x6 secure_fw/CMakeFiles/tfm_s.dir/__/platform/ext/common/faults.o
                0x0000000000002742                MemManage_Handler
 .text.C_BusFault_Handler
                0x0000000000002748        0x4 secure_fw/CMakeFiles/tfm_s.dir/__/platform/ext/common/faults.o
                0x0000000000002748                C_BusFault_Handler
 .text.BusFault_Handler
                0x000000000000274c        0x6 secure_fw/CMakeFiles/tfm_s.dir/__/platform/ext/common/faults.o
                0x000000000000274c                BusFault_Handler
 .text.C_SecureFault_Handler
                0x0000000000002752        0x4 secure_fw/CMakeFiles/tfm_s.dir/__/platform/ext/common/faults.o
                0x0000000000002752                C_SecureFault_Handler
 .text.SecureFault_Handler
                0x0000000000002756        0x6 secure_fw/CMakeFiles/tfm_s.dir/__/platform/ext/common/faults.o
                0x0000000000002756                SecureFault_Handler
 .text.C_UsageFault_Handler
                0x000000000000275c        0x4 secure_fw/CMakeFiles/tfm_s.dir/__/platform/ext/common/faults.o
                0x000000000000275c                C_UsageFault_Handler
 .text.UsageFault_Handler
                0x0000000000002760        0x6 secure_fw/CMakeFiles/tfm_s.dir/__/platform/ext/common/faults.o
                0x0000000000002760                UsageFault_Handler
 .text.memset   0x0000000000002766       0x3e secure_fw/partitions/lib/runtime/libtfm_sprt.a(crt_memset.o)
                0x0000000000002766                memset
 .text.psa_framework_version
                0x00000000000027a4       0x10 secure_fw/partitions/lib/runtime/libtfm_sprt.a(psa_api_ipc.o)
                0x00000000000027a4                psa_framework_version
 .text.psa_version
                0x00000000000027b4       0x10 secure_fw/partitions/lib/runtime/libtfm_sprt.a(psa_api_ipc.o)
                0x00000000000027b4                psa_version
 .text.tfm_psa_call_pack
                0x00000000000027c4       0x14 secure_fw/partitions/lib/runtime/libtfm_sprt.a(psa_api_ipc.o)
                0x00000000000027c4                tfm_psa_call_pack
 .text.psa_wait
                0x00000000000027d8       0x10 secure_fw/partitions/lib/runtime/libtfm_sprt.a(psa_api_ipc.o)
                0x00000000000027d8                psa_wait
 .text.psa_get  0x00000000000027e8       0x10 secure_fw/partitions/lib/runtime/libtfm_sprt.a(psa_api_ipc.o)
                0x00000000000027e8                psa_get
 .text.psa_read
                0x00000000000027f8       0x14 secure_fw/partitions/lib/runtime/libtfm_sprt.a(psa_api_ipc.o)
                0x00000000000027f8                psa_read
 .text.psa_write
                0x000000000000280c       0x14 secure_fw/partitions/lib/runtime/libtfm_sprt.a(psa_api_ipc.o)
                0x000000000000280c                psa_write
 .text.psa_reply
                0x0000000000002820       0x10 secure_fw/partitions/lib/runtime/libtfm_sprt.a(psa_api_ipc.o)
                0x0000000000002820                psa_reply
 .text.psa_panic
                0x0000000000002830       0x10 secure_fw/partitions/lib/runtime/libtfm_sprt.a(psa_api_ipc.o)
                0x0000000000002830                psa_panic
 .text.tfm_plat_builtin_key_get_desc_table_ptr
                0x0000000000002840        0x4 platform/libplatform_crypto_keys.a(crypto_keys.o)
                0x0000000000002840                tfm_plat_builtin_key_get_desc_table_ptr
 .text.verify_header
                0x0000000000002844       0x40 secure_fw/partitions/crypto/mbedcrypto/nrf_security_src/libcrypto_service_mbedcrypto.a(memory_buffer_alloc.o)
 .text.verify_chain
                0x0000000000002884       0x3c secure_fw/partitions/crypto/mbedcrypto/nrf_security_src/libcrypto_service_mbedcrypto.a(memory_buffer_alloc.o)
 .text.buffer_alloc_calloc
                0x00000000000028c0       0xf4 secure_fw/partitions/crypto/mbedcrypto/nrf_security_src/libcrypto_service_mbedcrypto.a(memory_buffer_alloc.o)
 .text.buffer_alloc_free
                0x00000000000029b4       0xe8 secure_fw/partitions/crypto/mbedcrypto/nrf_security_src/libcrypto_service_mbedcrypto.a(memory_buffer_alloc.o)
 .text.mbedtls_memory_buffer_alloc_init
                0x0000000000002a9c       0x64 secure_fw/partitions/crypto/mbedcrypto/nrf_security_src/libcrypto_service_mbedcrypto.a(memory_buffer_alloc.o)
                0x0000000000002a9c                mbedtls_memory_buffer_alloc_init
 .text.platform_calloc_uninit
                0x0000000000002b00        0x4 secure_fw/partitions/crypto/mbedcrypto/nrf_security_src/libcrypto_service_mbedcrypto.a(platform.o)
 .text.platform_free_uninit
                0x0000000000002b04        0x2 secure_fw/partitions/crypto/mbedcrypto/nrf_security_src/libcrypto_service_mbedcrypto.a(platform.o)
 *fill*         0x0000000000002b06        0x2 
 .text.mbedtls_free
                0x0000000000002b08        0xc secure_fw/partitions/crypto/mbedcrypto/nrf_security_src/libcrypto_service_mbedcrypto.a(platform.o)
                0x0000000000002b08                mbedtls_free
 .text.mbedtls_platform_set_calloc_free
                0x0000000000002b14       0x14 secure_fw/partitions/crypto/mbedcrypto/nrf_security_src/libcrypto_service_mbedcrypto.a(platform.o)
                0x0000000000002b14                mbedtls_platform_set_calloc_free
 .text.psa_remove_key_data_from_memory
                0x0000000000002b28       0x1c secure_fw/partitions/crypto/mbedcrypto/nrf_security_src/libcrypto_service_mbedcrypto.a(psa_crypto.o)
                0x0000000000002b28                psa_remove_key_data_from_memory
 .text.psa_wipe_key_slot
                0x0000000000002b44       0x22 secure_fw/partitions/crypto/mbedcrypto/nrf_security_src/libcrypto_service_mbedcrypto.a(psa_crypto.o)
                0x0000000000002b44                psa_wipe_key_slot
 *fill*         0x0000000000002b66        0x2 
 .text.mbedcrypto__psa_generate_random
                0x0000000000002b68       0x1c secure_fw/partitions/crypto/mbedcrypto/nrf_security_src/libcrypto_service_mbedcrypto.a(psa_crypto.o)
                0x0000000000002b68                mbedcrypto__psa_generate_random
 .text.mbedtls_psa_crypto_free
                0x0000000000002b84       0x24 secure_fw/partitions/crypto/mbedcrypto/nrf_security_src/libcrypto_service_mbedcrypto.a(psa_crypto.o)
                0x0000000000002b84                mbedtls_psa_crypto_free
 .text.mbedcrypto__psa_crypto_init
                0x0000000000002ba8       0x3c secure_fw/partitions/crypto/mbedcrypto/nrf_security_src/libcrypto_service_mbedcrypto.a(psa_crypto.o)
                0x0000000000002ba8                mbedcrypto__psa_crypto_init
 .text.psa_initialize_key_slots
                0x0000000000002be4       0x18 secure_fw/partitions/crypto/mbedcrypto/nrf_security_src/libcrypto_service_mbedcrypto.a(psa_crypto_slot_management.o)
                0x0000000000002be4                psa_initialize_key_slots
 .text.psa_wipe_all_key_slots
                0x0000000000002bfc       0x2c secure_fw/partitions/crypto/mbedcrypto/nrf_security_src/libcrypto_service_mbedcrypto.a(psa_crypto_slot_management.o)
                0x0000000000002bfc                psa_wipe_all_key_slots
 .text.psa_driver_wrapper_init
                0x0000000000002c28        0x4 secure_fw/partitions/crypto/mbedcrypto/nrf_security_src/libcrypto_service_mbedcrypto.a(psa_crypto_driver_wrappers.o)
                0x0000000000002c28                psa_driver_wrapper_init
 .text.psa_driver_wrapper_free
                0x0000000000002c2c        0x2 secure_fw/partitions/crypto/mbedcrypto/nrf_security_src/libcrypto_service_mbedcrypto.a(psa_crypto_driver_wrappers.o)
                0x0000000000002c2c                psa_driver_wrapper_free
 .text.psa_driver_wrapper_init_random
                0x0000000000002c2e        0x4 secure_fw/partitions/crypto/mbedcrypto/nrf_security_src/libcrypto_service_mbedcrypto.a(psa_crypto_driver_wrappers.o)
                0x0000000000002c2e                psa_driver_wrapper_init_random
 .text.psa_driver_wrapper_get_random
                0x0000000000002c32       0x22 secure_fw/partitions/crypto/mbedcrypto/nrf_security_src/libcrypto_service_mbedcrypto.a(psa_crypto_driver_wrappers.o)
                0x0000000000002c32                psa_driver_wrapper_get_random
 .text.psa_driver_wrapper_free_random
                0x0000000000002c54        0x4 secure_fw/partitions/crypto/mbedcrypto/nrf_security_src/libcrypto_service_mbedcrypto.a(psa_crypto_driver_wrappers.o)
                0x0000000000002c54                psa_driver_wrapper_free_random
 .text.memcpy   0x0000000000002c58       0x4a secure_fw/partitions/lib/runtime/libtfm_sprt.a(crt_memcpy.o)
                0x0000000000002c58                memcpy
 *fill*         0x0000000000002ca2        0x2 
 .text.common_sfn_thread
                0x0000000000002ca4       0x88 secure_fw/partitions/lib/runtime/libtfm_sprt.a(sfn_common_thread.o)
                0x0000000000002ca4                common_sfn_thread
 .text.nrf_cc3xx_platform_init
                0x0000000000002d2c       0x44 /home/jordan/ncs/v2.5.1/nrfxlib/crypto/nrf_cc312_platform/lib/cortex-m33/soft-float/no-interrupts/libnrf_cc312_platform_0.9.18.a(nrf_cc3xx_platform.c.obj)
                0x0000000000002d2c                nrf_cc3xx_platform_init
 .text.nrf_cc3xx_platform_ctr_drbg_init
                0x0000000000002d70       0x60 /home/jordan/ncs/v2.5.1/nrfxlib/crypto/nrf_cc312_platform/lib/cortex-m33/soft-float/no-interrupts/libnrf_cc312_platform_0.9.18.a(nrf_cc3xx_platform_ctr_drbg.c.obj)
                0x0000000000002d70                nrf_cc3xx_platform_ctr_drbg_init
 .text.nrf_cc3xx_platform_ctr_drbg_get
                0x0000000000002dd0       0x44 /home/jordan/ncs/v2.5.1/nrfxlib/crypto/nrf_cc312_platform/lib/cortex-m33/soft-float/no-interrupts/libnrf_cc312_platform_0.9.18.a(nrf_cc3xx_platform_ctr_drbg.c.obj)
                0x0000000000002dd0                nrf_cc3xx_platform_ctr_drbg_get
 .text.mbedtls_zeroize_internal
                0x0000000000002e14       0x14 /home/jordan/ncs/v2.5.1/nrfxlib/crypto/nrf_cc312_platform/lib/cortex-m33/soft-float/no-interrupts/libnrf_cc312_platform_0.9.18.a(mbedtls_common.c.obj)
                0x0000000000002e14                mbedtls_zeroize_internal
 .text.mbedtls_platform_zeroize
                0x0000000000002e28       0x14 /home/jordan/ncs/v2.5.1/nrfxlib/crypto/nrf_cc312_platform/lib/cortex-m33/soft-float/no-interrupts/libnrf_cc312_platform_0.9.18.a(mbedtls_common.c.obj)
                0x0000000000002e28                mbedtls_platform_zeroize
 .text.block_cipher_df
                0x0000000000002e3c      0x1d0 /home/jordan/ncs/v2.5.1/nrfxlib/crypto/nrf_cc312_platform/lib/cortex-m33/soft-float/no-interrupts/libnrf_cc312_platform_0.9.18.a(ctr_drbg.c.obj)
 .text.ctr_drbg_update_internal
                0x000000000000300c      0x174 /home/jordan/ncs/v2.5.1/nrfxlib/crypto/nrf_cc312_platform/lib/cortex-m33/soft-float/no-interrupts/libnrf_cc312_platform_0.9.18.a(ctr_drbg.c.obj)
 .text.mbedtls_ctr_drbg_reseed_internal
                0x0000000000003180       0xc4 /home/jordan/ncs/v2.5.1/nrfxlib/crypto/nrf_cc312_platform/lib/cortex-m33/soft-float/no-interrupts/libnrf_cc312_platform_0.9.18.a(ctr_drbg.c.obj)
 .text.cc_mbedtls_ctr_drbg_init
                0x0000000000003244       0x2c /home/jordan/ncs/v2.5.1/nrfxlib/crypto/nrf_cc312_platform/lib/cortex-m33/soft-float/no-interrupts/libnrf_cc312_platform_0.9.18.a(ctr_drbg.c.obj)
                0x0000000000003244                cc_mbedtls_ctr_drbg_init
 .text.cc_mbedtls_ctr_drbg_seed
                0x0000000000003270       0xa0 /home/jordan/ncs/v2.5.1/nrfxlib/crypto/nrf_cc312_platform/lib/cortex-m33/soft-float/no-interrupts/libnrf_cc312_platform_0.9.18.a(ctr_drbg.c.obj)
                0x0000000000003270                cc_mbedtls_ctr_drbg_seed
 .text.cc_mbedtls_ctr_drbg_random_with_add
                0x0000000000003310      0x1e4 /home/jordan/ncs/v2.5.1/nrfxlib/crypto/nrf_cc312_platform/lib/cortex-m33/soft-float/no-interrupts/libnrf_cc312_platform_0.9.18.a(ctr_drbg.c.obj)
                0x0000000000003310                cc_mbedtls_ctr_drbg_random_with_add
 .text.entropy_update
                0x00000000000034f4       0x7c /home/jordan/ncs/v2.5.1/nrfxlib/crypto/nrf_cc312_platform/lib/cortex-m33/soft-float/no-interrupts/libnrf_cc312_platform_0.9.18.a(entropy.c.obj)
 .text.entropy_gather_internal.part.0
                0x0000000000003570       0x88 /home/jordan/ncs/v2.5.1/nrfxlib/crypto/nrf_cc312_platform/lib/cortex-m33/soft-float/no-interrupts/libnrf_cc312_platform_0.9.18.a(entropy.c.obj)
 .text.cc_mbedtls_entropy_init
                0x00000000000035f8       0x84 /home/jordan/ncs/v2.5.1/nrfxlib/crypto/nrf_cc312_platform/lib/cortex-m33/soft-float/no-interrupts/libnrf_cc312_platform_0.9.18.a(entropy.c.obj)
                0x00000000000035f8                cc_mbedtls_entropy_init
 .text.cc_mbedtls_entropy_func
                0x000000000000367c      0x110 /home/jordan/ncs/v2.5.1/nrfxlib/crypto/nrf_cc312_platform/lib/cortex-m33/soft-float/no-interrupts/libnrf_cc312_platform_0.9.18.a(entropy.c.obj)
                0x000000000000367c                cc_mbedtls_entropy_func
 .text.RndStartupTest.constprop.0
                0x000000000000378c       0xac /home/jordan/ncs/v2.5.1/nrfxlib/crypto/nrf_cc312_platform/lib/cortex-m33/soft-float/no-interrupts/libnrf_cc312_platform_0.9.18.a(cc_lib.c.obj)
 .text.CC_LibInit
                0x0000000000003838       0x74 /home/jordan/ncs/v2.5.1/nrfxlib/crypto/nrf_cc312_platform/lib/cortex-m33/soft-float/no-interrupts/libnrf_cc312_platform_0.9.18.a(cc_lib.c.obj)
                0x0000000000003838                CC_LibInit
 .text.CC_HalInit
                0x00000000000038ac        0x4 /home/jordan/ncs/v2.5.1/nrfxlib/crypto/nrf_cc312_platform/lib/cortex-m33/soft-float/no-interrupts/libnrf_cc312_platform_0.9.18.a(cc_hal.c.obj)
                0x00000000000038ac                CC_HalInit
 .text.CC_HalClearInterruptBit
                0x00000000000038b0       0x1c /home/jordan/ncs/v2.5.1/nrfxlib/crypto/nrf_cc312_platform/lib/cortex-m33/soft-float/no-interrupts/libnrf_cc312_platform_0.9.18.a(cc_hal.c.obj)
                0x00000000000038b0                CC_HalClearInterruptBit
 .text.CC_HalMaskInterrupt
                0x00000000000038cc        0xc /home/jordan/ncs/v2.5.1/nrfxlib/crypto/nrf_cc312_platform/lib/cortex-m33/soft-float/no-interrupts/libnrf_cc312_platform_0.9.18.a(cc_hal.c.obj)
                0x00000000000038cc                CC_HalMaskInterrupt
 .text.CC_HalWaitInterrupt
                0x00000000000038d8        0xc /home/jordan/ncs/v2.5.1/nrfxlib/crypto/nrf_cc312_platform/lib/cortex-m33/soft-float/no-interrupts/libnrf_cc312_platform_0.9.18.a(cc_hal.c.obj)
                0x00000000000038d8                CC_HalWaitInterrupt
 .text.CC_HalWaitInterruptRND
                0x00000000000038e4        0xc /home/jordan/ncs/v2.5.1/nrfxlib/crypto/nrf_cc312_platform/lib/cortex-m33/soft-float/no-interrupts/libnrf_cc312_platform_0.9.18.a(cc_hal.c.obj)
                0x00000000000038e4                CC_HalWaitInterruptRND
 .text.CC_PalInit
                0x00000000000038f0       0x5c /home/jordan/ncs/v2.5.1/nrfxlib/crypto/nrf_cc312_platform/lib/cortex-m33/soft-float/no-interrupts/libnrf_cc312_platform_0.9.18.a(cc_pal.c.obj)
                0x00000000000038f0                CC_PalInit
 .text.CC_PalTerminate
                0x000000000000394c       0x34 /home/jordan/ncs/v2.5.1/nrfxlib/crypto/nrf_cc312_platform/lib/cortex-m33/soft-float/no-interrupts/libnrf_cc312_platform_0.9.18.a(cc_pal.c.obj)
                0x000000000000394c                CC_PalTerminate
 .text.CC_PalDmaInit
                0x0000000000003980        0x4 /home/jordan/ncs/v2.5.1/nrfxlib/crypto/nrf_cc312_platform/lib/cortex-m33/soft-float/no-interrupts/libnrf_cc312_platform_0.9.18.a(cc_pal_dma.c.obj)
                0x0000000000003980                CC_PalDmaInit
 .text.CC_PalDmaTerminate
                0x0000000000003984        0x4 /home/jordan/ncs/v2.5.1/nrfxlib/crypto/nrf_cc312_platform/lib/cortex-m33/soft-float/no-interrupts/libnrf_cc312_platform_0.9.18.a(cc_pal_dma.c.obj)
                0x0000000000003984                CC_PalDmaTerminate
 .text.CC_PalWaitInterruptRND
                0x0000000000003988       0x38 /home/jordan/ncs/v2.5.1/nrfxlib/crypto/nrf_cc312_platform/lib/cortex-m33/soft-float/no-interrupts/libnrf_cc312_platform_0.9.18.a(cc_pal_interrupt_ctrl.c.obj)
                0x0000000000003988                CC_PalWaitInterruptRND
 .text.CC_PalWaitInterrupt
                0x00000000000039c0       0x28 /home/jordan/ncs/v2.5.1/nrfxlib/crypto/nrf_cc312_platform/lib/cortex-m33/soft-float/no-interrupts/libnrf_cc312_platform_0.9.18.a(cc_pal_interrupt_ctrl.c.obj)
                0x00000000000039c0                CC_PalWaitInterrupt
 .text.CC_PalMemCopyPlat
                0x00000000000039e8        0x4 /home/jordan/ncs/v2.5.1/nrfxlib/crypto/nrf_cc312_platform/lib/cortex-m33/soft-float/no-interrupts/libnrf_cc312_platform_0.9.18.a(cc_pal_mem.c.obj)
                0x00000000000039e8                CC_PalMemCopyPlat
 .text.CC_PalMemSetPlat
                0x00000000000039ec        0x4 /home/jordan/ncs/v2.5.1/nrfxlib/crypto/nrf_cc312_platform/lib/cortex-m33/soft-float/no-interrupts/libnrf_cc312_platform_0.9.18.a(cc_pal_mem.c.obj)
                0x00000000000039ec                CC_PalMemSetPlat
 .text.CC_PalMemSetZeroPlat
                0x00000000000039f0        0x8 /home/jordan/ncs/v2.5.1/nrfxlib/crypto/nrf_cc312_platform/lib/cortex-m33/soft-float/no-interrupts/libnrf_cc312_platform_0.9.18.a(cc_pal_mem.c.obj)
                0x00000000000039f0                CC_PalMemSetZeroPlat
 .text.CC_PalMutexCreate
                0x00000000000039f8       0x14 /home/jordan/ncs/v2.5.1/nrfxlib/crypto/nrf_cc312_platform/lib/cortex-m33/soft-float/no-interrupts/libnrf_cc312_platform_0.9.18.a(cc_pal_mutex.c.obj)
                0x00000000000039f8                CC_PalMutexCreate
 .text.CC_PalMutexDestroy
                0x0000000000003a0c       0x14 /home/jordan/ncs/v2.5.1/nrfxlib/crypto/nrf_cc312_platform/lib/cortex-m33/soft-float/no-interrupts/libnrf_cc312_platform_0.9.18.a(cc_pal_mutex.c.obj)
                0x0000000000003a0c                CC_PalMutexDestroy
 .text.CC_PalMutexLock
                0x0000000000003a20       0x10 /home/jordan/ncs/v2.5.1/nrfxlib/crypto/nrf_cc312_platform/lib/cortex-m33/soft-float/no-interrupts/libnrf_cc312_platform_0.9.18.a(cc_pal_mutex.c.obj)
                0x0000000000003a20                CC_PalMutexLock
 .text.CC_PalMutexUnlock
                0x0000000000003a30       0x14 /home/jordan/ncs/v2.5.1/nrfxlib/crypto/nrf_cc312_platform/lib/cortex-m33/soft-float/no-interrupts/libnrf_cc312_platform_0.9.18.a(cc_pal_mutex.c.obj)
                0x0000000000003a30                CC_PalMutexUnlock
 .text.CC_PalPowerSaveModeInit
                0x0000000000003a44       0x3c /home/jordan/ncs/v2.5.1/nrfxlib/crypto/nrf_cc312_platform/lib/cortex-m33/soft-float/no-interrupts/libnrf_cc312_platform_0.9.18.a(cc_pal_pm.c.obj)
                0x0000000000003a44                CC_PalPowerSaveModeInit
 .text.CC_PalPowerSaveModeSelect
                0x0000000000003a80       0x84 /home/jordan/ncs/v2.5.1/nrfxlib/crypto/nrf_cc312_platform/lib/cortex-m33/soft-float/no-interrupts/libnrf_cc312_platform_0.9.18.a(cc_pal_pm.c.obj)
                0x0000000000003a80                CC_PalPowerSaveModeSelect
 .text.mutex_init
                0x0000000000003b04        0xc /home/jordan/ncs/v2.5.1/nrfxlib/crypto/nrf_cc312_platform/lib/cortex-m33/soft-float/no-interrupts/libnrf_cc312_platform_0.9.18.a(threading_alt.c.obj)
                0x0000000000003b04                mutex_init
 .text.mutex_lock
                0x0000000000003b10        0xc /home/jordan/ncs/v2.5.1/nrfxlib/crypto/nrf_cc312_platform/lib/cortex-m33/soft-float/no-interrupts/libnrf_cc312_platform_0.9.18.a(threading_alt.c.obj)
                0x0000000000003b10                mutex_lock
 .text.mutex_unlock
                0x0000000000003b1c        0xc /home/jordan/ncs/v2.5.1/nrfxlib/crypto/nrf_cc312_platform/lib/cortex-m33/soft-float/no-interrupts/libnrf_cc312_platform_0.9.18.a(threading_alt.c.obj)
                0x0000000000003b1c                mutex_unlock
 .text.nrf_cc3xx_platform_abort
                0x0000000000003b28       0x24 /home/jordan/ncs/v2.5.1/nrfxlib/crypto/nrf_cc312_platform/lib/cortex-m33/soft-float/no-interrupts/libnrf_cc312_platform_0.9.18.a(nrf_cc3xx_platform_abort.c.obj)
 .text.CC_PalAbort
                0x0000000000003b4c       0x44 /home/jordan/ncs/v2.5.1/nrfxlib/crypto/nrf_cc312_platform/lib/cortex-m33/soft-float/no-interrupts/libnrf_cc312_platform_0.9.18.a(nrf_cc3xx_platform_abort.c.obj)
                0x0000000000003b4c                CC_PalAbort
 .text.mutex_free
                0x0000000000003b90       0x34 /home/jordan/ncs/v2.5.1/nrfxlib/crypto/nrf_cc312_platform/lib/cortex-m33/soft-float/no-interrupts/libnrf_cc312_platform_0.9.18.a(nrf_cc3xx_platform_mutex.c.obj)
 .text.mutex_lock
                0x0000000000003bc4       0x48 /home/jordan/ncs/v2.5.1/nrfxlib/crypto/nrf_cc312_platform/lib/cortex-m33/soft-float/no-interrupts/libnrf_cc312_platform_0.9.18.a(nrf_cc3xx_platform_mutex.c.obj)
 .text.mutex_unlock
                0x0000000000003c0c       0x38 /home/jordan/ncs/v2.5.1/nrfxlib/crypto/nrf_cc312_platform/lib/cortex-m33/soft-float/no-interrupts/libnrf_cc312_platform_0.9.18.a(nrf_cc3xx_platform_mutex.c.obj)
 .text.mutex_init
                0x0000000000003c44       0x20 /home/jordan/ncs/v2.5.1/nrfxlib/crypto/nrf_cc312_platform/lib/cortex-m33/soft-float/no-interrupts/libnrf_cc312_platform_0.9.18.a(nrf_cc3xx_platform_mutex.c.obj)
 .text.startTrngHW
                0x0000000000003c64      0x130 /home/jordan/ncs/v2.5.1/nrfxlib/crypto/nrf_cc312_platform/lib/cortex-m33/soft-float/no-interrupts/libnrf_cc312_platform_0.9.18.a(llf_rnd_trng90b.c.obj)
 .text.LLF_RND_RepetitionCounterTest
                0x0000000000003d94       0x64 /home/jordan/ncs/v2.5.1/nrfxlib/crypto/nrf_cc312_platform/lib/cortex-m33/soft-float/no-interrupts/libnrf_cc312_platform_0.9.18.a(llf_rnd_trng90b.c.obj)
                0x0000000000003d94                LLF_RND_RepetitionCounterTest
 .text.LLF_RND_AdaptiveProportionTest
                0x0000000000003df8       0x80 /home/jordan/ncs/v2.5.1/nrfxlib/crypto/nrf_cc312_platform/lib/cortex-m33/soft-float/no-interrupts/libnrf_cc312_platform_0.9.18.a(llf_rnd_trng90b.c.obj)
                0x0000000000003df8                LLF_RND_AdaptiveProportionTest
 .text.getTrngSource
                0x0000000000003e78      0x2a8 /home/jordan/ncs/v2.5.1/nrfxlib/crypto/nrf_cc312_platform/lib/cortex-m33/soft-float/no-interrupts/libnrf_cc312_platform_0.9.18.a(llf_rnd_trng90b.c.obj)
 .text.LLF_RND_GetTrngSource
                0x0000000000004120       0x18 /home/jordan/ncs/v2.5.1/nrfxlib/crypto/nrf_cc312_platform/lib/cortex-m33/soft-float/no-interrupts/libnrf_cc312_platform_0.9.18.a(llf_rnd_trng90b.c.obj)
                0x0000000000004120                LLF_RND_GetTrngSource
 .text.LLF_RND_RunTrngStartupTest
                0x0000000000004138       0x1c /home/jordan/ncs/v2.5.1/nrfxlib/crypto/nrf_cc312_platform/lib/cortex-m33/soft-float/no-interrupts/libnrf_cc312_platform_0.9.18.a(llf_rnd_trng90b.c.obj)
                0x0000000000004138                LLF_RND_RunTrngStartupTest
 .text.mbedtls_hardware_poll
                0x0000000000004154      0x104 /home/jordan/ncs/v2.5.1/nrfxlib/crypto/nrf_cc312_platform/lib/cortex-m33/soft-float/no-interrupts/libnrf_cc312_platform_0.9.18.a(trng_api.c.obj)
                0x0000000000004154                mbedtls_hardware_poll
 .text.cc_mbedtls_aes_init
                0x0000000000004258       0x20 /home/jordan/ncs/v2.5.1/nrfxlib/crypto/nrf_cc312_platform/lib/cortex-m33/soft-float/no-interrupts/libnrf_cc312_platform_0.9.18.a(aes_alt.c.obj)
                0x0000000000004258                cc_mbedtls_aes_init
 .text.cc_mbedtls_aes_free
                0x0000000000004278        0xc /home/jordan/ncs/v2.5.1/nrfxlib/crypto/nrf_cc312_platform/lib/cortex-m33/soft-float/no-interrupts/libnrf_cc312_platform_0.9.18.a(aes_alt.c.obj)
                0x0000000000004278                cc_mbedtls_aes_free
 .text.cc_mbedtls_aes_setkey_enc
                0x0000000000004284       0x44 /home/jordan/ncs/v2.5.1/nrfxlib/crypto/nrf_cc312_platform/lib/cortex-m33/soft-float/no-interrupts/libnrf_cc312_platform_0.9.18.a(aes_alt.c.obj)
                0x0000000000004284                cc_mbedtls_aes_setkey_enc
 .text.cc_mbedtls_aes_crypt_ecb
                0x00000000000042c8       0x50 /home/jordan/ncs/v2.5.1/nrfxlib/crypto/nrf_cc312_platform/lib/cortex-m33/soft-float/no-interrupts/libnrf_cc312_platform_0.9.18.a(aes_alt.c.obj)
                0x00000000000042c8                cc_mbedtls_aes_crypt_ecb
 .text.cc_mbedtls_sha256_init
                0x0000000000004318       0x28 /home/jordan/ncs/v2.5.1/nrfxlib/crypto/nrf_cc312_platform/lib/cortex-m33/soft-float/no-interrupts/libnrf_cc312_platform_0.9.18.a(sha256_alt.c.obj)
                0x0000000000004318                cc_mbedtls_sha256_init
 .text.cc_mbedtls_sha256_free
                0x0000000000004340        0xc /home/jordan/ncs/v2.5.1/nrfxlib/crypto/nrf_cc312_platform/lib/cortex-m33/soft-float/no-interrupts/libnrf_cc312_platform_0.9.18.a(sha256_alt.c.obj)
                0x0000000000004340                cc_mbedtls_sha256_free
 .text.cc_mbedtls_sha256_starts
                0x000000000000434c       0x28 /home/jordan/ncs/v2.5.1/nrfxlib/crypto/nrf_cc312_platform/lib/cortex-m33/soft-float/no-interrupts/libnrf_cc312_platform_0.9.18.a(sha256_alt.c.obj)
                0x000000000000434c                cc_mbedtls_sha256_starts
 .text.cc_mbedtls_sha256_update
                0x0000000000004374       0x54 /home/jordan/ncs/v2.5.1/nrfxlib/crypto/nrf_cc312_platform/lib/cortex-m33/soft-float/no-interrupts/libnrf_cc312_platform_0.9.18.a(sha256_alt.c.obj)
                0x0000000000004374                cc_mbedtls_sha256_update
 .text.cc_mbedtls_sha256_finish
                0x00000000000043c8       0x48 /home/jordan/ncs/v2.5.1/nrfxlib/crypto/nrf_cc312_platform/lib/cortex-m33/soft-float/no-interrupts/libnrf_cc312_platform_0.9.18.a(sha256_alt.c.obj)
                0x00000000000043c8                cc_mbedtls_sha256_finish
 .text.mbedtls_sha_starts_internal
                0x0000000000004410       0x28 /home/jordan/ncs/v2.5.1/nrfxlib/crypto/nrf_cc312_platform/lib/cortex-m33/soft-float/no-interrupts/libnrf_cc312_platform_0.9.18.a(mbedtls_hash_common.c.obj)
                0x0000000000004410                mbedtls_sha_starts_internal
 .text.mbedtls_sha_finish_internal
                0x0000000000004438       0x5c /home/jordan/ncs/v2.5.1/nrfxlib/crypto/nrf_cc312_platform/lib/cortex-m33/soft-float/no-interrupts/libnrf_cc312_platform_0.9.18.a(mbedtls_hash_common.c.obj)
                0x0000000000004438                mbedtls_sha_finish_internal
 .text.mbedtls_sha_update_internal
                0x0000000000004494      0x1ec /home/jordan/ncs/v2.5.1/nrfxlib/crypto/nrf_cc312_platform/lib/cortex-m33/soft-float/no-interrupts/libnrf_cc312_platform_0.9.18.a(mbedtls_hash_common.c.obj)
                0x0000000000004494                mbedtls_sha_update_internal
 .text.cc_mbedtls_sha256
                0x0000000000004680       0x50 /home/jordan/ncs/v2.5.1/nrfxlib/crypto/nrf_cc312_platform/lib/cortex-m33/soft-float/no-interrupts/libnrf_cc312_platform_0.9.18.a(sha256.c.obj)
                0x0000000000004680                cc_mbedtls_sha256
 .text.RNG_PLAT_SetUserRngParameters
                0x00000000000046d0       0x74 /home/jordan/ncs/v2.5.1/nrfxlib/crypto/nrf_cc312_platform/lib/cortex-m33/soft-float/no-interrupts/libnrf_cc312_platform_0.9.18.a(cc_rng_plat.c.obj)
                0x00000000000046d0                RNG_PLAT_SetUserRngParameters
 .text.CC_PalTrngParamGet
                0x0000000000004744       0xac /home/jordan/ncs/v2.5.1/nrfxlib/crypto/nrf_cc312_platform/lib/cortex-m33/soft-float/no-interrupts/libnrf_cc312_platform_0.9.18.a(cc_pal_trng.c.obj)
                0x0000000000004744                CC_PalTrngParamGet
 .text.LLF_RND_WaitRngInterrupt
                0x00000000000047f0       0x20 /home/jordan/ncs/v2.5.1/nrfxlib/crypto/nrf_cc312_platform/lib/cortex-m33/soft-float/no-interrupts/libnrf_cc312_platform_0.9.18.a(llf_rnd.c.obj)
                0x00000000000047f0                LLF_RND_WaitRngInterrupt
 .text.LLF_RND_GetRoscSampleCnt
                0x0000000000004810       0x34 /home/jordan/ncs/v2.5.1/nrfxlib/crypto/nrf_cc312_platform/lib/cortex-m33/soft-float/no-interrupts/libnrf_cc312_platform_0.9.18.a(llf_rnd.c.obj)
                0x0000000000004810                LLF_RND_GetRoscSampleCnt
 .text.LLF_RND_GetFastestRosc
                0x0000000000004844       0x20 /home/jordan/ncs/v2.5.1/nrfxlib/crypto/nrf_cc312_platform/lib/cortex-m33/soft-float/no-interrupts/libnrf_cc312_platform_0.9.18.a(llf_rnd.c.obj)
                0x0000000000004844                LLF_RND_GetFastestRosc
 .text.LLF_RND_TurnOffTrng
                0x0000000000004864       0x24 /home/jordan/ncs/v2.5.1/nrfxlib/crypto/nrf_cc312_platform/lib/cortex-m33/soft-float/no-interrupts/libnrf_cc312_platform_0.9.18.a(llf_rnd.c.obj)
                0x0000000000004864                LLF_RND_TurnOffTrng
 .text.SetDataBuffersInfo
                0x0000000000004888       0x64 /home/jordan/ncs/v2.5.1/nrfxlib/crypto/nrf_cc312_platform/lib/cortex-m33/soft-float/no-interrupts/libnrf_cc312_platform_0.9.18.a(driver_common.c.obj)
                0x0000000000004888                SetDataBuffersInfo
 .text.InitHashDrv
                0x00000000000048ec       0x50 /home/jordan/ncs/v2.5.1/nrfxlib/crypto/nrf_cc312_platform/lib/cortex-m33/soft-float/no-interrupts/libnrf_cc312_platform_0.9.18.a(hash_driver.c.obj)
                0x00000000000048ec                InitHashDrv
 .text.ProcessHashDrv
                0x000000000000493c      0x210 /home/jordan/ncs/v2.5.1/nrfxlib/crypto/nrf_cc312_platform/lib/cortex-m33/soft-float/no-interrupts/libnrf_cc312_platform_0.9.18.a(hash_driver.c.obj)
                0x000000000000493c                ProcessHashDrv
 .text.FinishHashDrv
                0x0000000000004b4c       0x74 /home/jordan/ncs/v2.5.1/nrfxlib/crypto/nrf_cc312_platform/lib/cortex-m33/soft-float/no-interrupts/libnrf_cc312_platform_0.9.18.a(hash_driver.c.obj)
                0x0000000000004b4c                FinishHashDrv
 .text.InitAes  0x0000000000004bc0       0xc8 /home/jordan/ncs/v2.5.1/nrfxlib/crypto/nrf_cc312_platform/lib/cortex-m33/soft-float/no-interrupts/libnrf_cc312_platform_0.9.18.a(aes_driver.c.obj)
 .text.LoadAesKey
                0x0000000000004c88      0x114 /home/jordan/ncs/v2.5.1/nrfxlib/crypto/nrf_cc312_platform/lib/cortex-m33/soft-float/no-interrupts/libnrf_cc312_platform_0.9.18.a(aes_driver.c.obj)
 .text.write_invalid_key
                0x0000000000004d9c       0x50 /home/jordan/ncs/v2.5.1/nrfxlib/crypto/nrf_cc312_platform/lib/cortex-m33/soft-float/no-interrupts/libnrf_cc312_platform_0.9.18.a(aes_driver.c.obj)
                0x0000000000004d9c                write_invalid_key
 .text.ProcessAesDrv
                0x0000000000004dec      0x338 /home/jordan/ncs/v2.5.1/nrfxlib/crypto/nrf_cc312_platform/lib/cortex-m33/soft-float/no-interrupts/libnrf_cc312_platform_0.9.18.a(aes_driver.c.obj)
                0x0000000000004dec                ProcessAesDrv
 .text.FinishAesDrv
                0x0000000000005124      0x200 /home/jordan/ncs/v2.5.1/nrfxlib/crypto/nrf_cc312_platform/lib/cortex-m33/soft-float/no-interrupts/libnrf_cc312_platform_0.9.18.a(aes_driver.c.obj)
                0x0000000000005124                FinishAesDrv
 .text.kmu_validate_slot_and_size
                0x0000000000005324       0x2c /home/jordan/ncs/v2.5.1/nrfxlib/crypto/nrf_cc312_platform/lib/cortex-m33/soft-float/no-interrupts/libnrf_cc312_platform_0.9.18.a(kmu_shared.c.obj)
                0x0000000000005324                kmu_validate_slot_and_size
 .text.kmu_validate_slot_and_size_no_kdr
                0x0000000000005350       0x2c /home/jordan/ncs/v2.5.1/nrfxlib/crypto/nrf_cc312_platform/lib/cortex-m33/soft-float/no-interrupts/libnrf_cc312_platform_0.9.18.a(kmu_shared.c.obj)
                0x0000000000005350                kmu_validate_slot_and_size_no_kdr
 .text.kmu_load_key_aes
                0x000000000000537c      0x200 /home/jordan/ncs/v2.5.1/nrfxlib/crypto/nrf_cc312_platform/lib/cortex-m33/soft-float/no-interrupts/libnrf_cc312_platform_0.9.18.a(kmu_shared.c.obj)
                0x000000000000537c                kmu_load_key_aes
 .text.kmu_derive_cmac
                0x000000000000557c      0x120 /home/jordan/ncs/v2.5.1/nrfxlib/crypto/nrf_cc312_platform/lib/cortex-m33/soft-float/no-interrupts/libnrf_cc312_platform_0.9.18.a(kmu_shared.c.obj)
                0x000000000000557c                kmu_derive_cmac
 .text.UtilCmacBuildDataForDerivation
                0x000000000000569c       0xc0 /home/jordan/ncs/v2.5.1/nrfxlib/crypto/nrf_cc312_platform/lib/cortex-m33/soft-float/no-interrupts/libnrf_cc312_platform_0.9.18.a(cc_util_cmac.c.obj)
                0x000000000000569c                UtilCmacBuildDataForDerivation
 .text.CC_PalDataBufferAttrGet
                0x000000000000575c        0x8 /home/jordan/ncs/v2.5.1/nrfxlib/crypto/nrf_cc312_platform/lib/cortex-m33/soft-float/no-interrupts/libnrf_cc312_platform_0.9.18.a(cc_pal_buff_attr.c.obj)
                0x000000000000575c                CC_PalDataBufferAttrGet
 .text          0x0000000000005764       0xc8 /home/jordan/ncs/toolchains/7795df4459/opt/zephyr-sdk/arm-zephyr-eabi/bin/../lib/gcc/arm-zephyr-eabi/12.2.0/thumb/v8-m.main/nofp/libgcc.a(cmse.o)
                0x0000000000005764                cmse_check_address_range
 .text.exit     0x000000000000582c       0x28 /home/jordan/ncs/toolchains/7795df4459/opt/zephyr-sdk/arm-zephyr-eabi/bin/../lib/gcc/arm-zephyr-eabi/12.2.0/../../../../arm-zephyr-eabi/lib/thumb/v8-m.main/nofp/libc_nano.a(lib_a-exit.o)
                0x000000000000582c                exit
 .text.__libc_init_array
                0x0000000000005854       0x48 /home/jordan/ncs/toolchains/7795df4459/opt/zephyr-sdk/arm-zephyr-eabi/bin/../lib/gcc/arm-zephyr-eabi/12.2.0/../../../../arm-zephyr-eabi/lib/thumb/v8-m.main/nofp/libc_nano.a(lib_a-init.o)
                0x0000000000005854                __libc_init_array
 .text.memmove  0x000000000000589c       0x34 /home/jordan/ncs/toolchains/7795df4459/opt/zephyr-sdk/arm-zephyr-eabi/bin/../lib/gcc/arm-zephyr-eabi/12.2.0/../../../../arm-zephyr-eabi/lib/thumb/v8-m.main/nofp/libc_nano.a(lib_a-memmove.o)
                0x000000000000589c                memmove
 .text._exit    0x00000000000058d0        0x4 /home/jordan/ncs/toolchains/7795df4459/opt/zephyr-sdk/arm-zephyr-eabi/bin/../lib/gcc/arm-zephyr-eabi/12.2.0/../../../../arm-zephyr-eabi/lib/thumb/v8-m.main/nofp/libnosys.a(_exit.o)
                0x00000000000058d0                _exit
 *(.init)
 .init          0x00000000000058d4        0x4 /home/jordan/ncs/toolchains/7795df4459/opt/zephyr-sdk/arm-zephyr-eabi/bin/../lib/gcc/arm-zephyr-eabi/12.2.0/thumb/v8-m.main/nofp/crti.o
                0x00000000000058d4                _init
 .init          0x00000000000058d8        0x8 /home/jordan/ncs/toolchains/7795df4459/opt/zephyr-sdk/arm-zephyr-eabi/bin/../lib/gcc/arm-zephyr-eabi/12.2.0/thumb/v8-m.main/nofp/crtn.o
 *(.fini)
 .fini          0x00000000000058e0        0x4 /home/jordan/ncs/toolchains/7795df4459/opt/zephyr-sdk/arm-zephyr-eabi/bin/../lib/gcc/arm-zephyr-eabi/12.2.0/thumb/v8-m.main/nofp/crti.o
                0x00000000000058e0                _fini
 .fini          0x00000000000058e4        0x8 /home/jordan/ncs/toolchains/7795df4459/opt/zephyr-sdk/arm-zephyr-eabi/bin/../lib/gcc/arm-zephyr-eabi/12.2.0/thumb/v8-m.main/nofp/crtn.o
 *crtbegin.o(.ctors)
 *crtbegin?.o(.ctors)
 *(EXCLUDE_FILE(*crtend.o *crtend?.o) .ctors)
 *(SORT_BY_NAME(.ctors.*))
 *(.ctors)
 *crtbegin.o(.dtors)
 *crtbegin?.o(.dtors)
 *(EXCLUDE_FILE(*crtend.o *crtend?.o) .dtors)
 *(SORT_BY_NAME(.dtors.*))
 *(.dtors)
 *(.rodata*)
 .rodata.str1.1
                0x00000000000058ec        0xb secure_fw/CMakeFiles/tfm_s.dir/__/generated/secure_fw/partitions/crypto/auto_generated/load_info_tfm_crypto.o
 .rodata.str1.1
                0x00000000000058f7       0x15 secure_fw/CMakeFiles/tfm_s.dir/__/generated/secure_fw/partitions/platform/auto_generated/load_info_tfm_platform.o
 .rodata.psa_api_cross
                0x000000000000590c       0x2c secure_fw/partitions/lib/runtime/libtfm_sprt.a(psa_interface_cross.o)
                0x000000000000590c                psa_api_cross
 .rodata.CSWTCH.10
                0x0000000000005938       0x20 /home/jordan/ncs/v2.5.1/nrfxlib/crypto/nrf_cc312_platform/lib/cortex-m33/soft-float/no-interrupts/libnrf_cc312_platform_0.9.18.a(nrf_cc3xx_platform.c.obj)
 .rodata.RndStartupTest.constprop.0.str1.4
                0x0000000000005958       0x6f /home/jordan/ncs/v2.5.1/nrfxlib/crypto/nrf_cc312_platform/lib/cortex-m33/soft-float/no-interrupts/libnrf_cc312_platform_0.9.18.a(cc_lib.c.obj)
 *fill*         0x00000000000059c7        0x1 
 .rodata.CC_PalPowerSaveModeInit.str1.4
                0x00000000000059c8       0x20 /home/jordan/ncs/v2.5.1/nrfxlib/crypto/nrf_cc312_platform/lib/cortex-m33/soft-float/no-interrupts/libnrf_cc312_platform_0.9.18.a(cc_pal_pm.c.obj)
 .rodata.mutex_free.str1.4
                0x00000000000059e8       0x26 /home/jordan/ncs/v2.5.1/nrfxlib/crypto/nrf_cc312_platform/lib/cortex-m33/soft-float/no-interrupts/libnrf_cc312_platform_0.9.18.a(nrf_cc3xx_platform_mutex.c.obj)
 *fill*         0x0000000000005a0e        0x2 
 .rodata.mutex_init.str1.4
                0x0000000000005a10       0x23 /home/jordan/ncs/v2.5.1/nrfxlib/crypto/nrf_cc312_platform/lib/cortex-m33/soft-float/no-interrupts/libnrf_cc312_platform_0.9.18.a(nrf_cc3xx_platform_mutex.c.obj)
 *fill*         0x0000000000005a33        0x1 
 .rodata.mbedtls_hardware_poll.str1.4
                0x0000000000005a34       0x16 /home/jordan/ncs/v2.5.1/nrfxlib/crypto/nrf_cc312_platform/lib/cortex-m33/soft-float/no-interrupts/libnrf_cc312_platform_0.9.18.a(trng_api.c.obj)
                                         0x6e (size before relaxing)
 *fill*         0x0000000000005a4a        0x2 
 .rodata.cc_mbedtls_aes_init.str1.4
                0x0000000000005a4c       0x13 /home/jordan/ncs/v2.5.1/nrfxlib/crypto/nrf_cc312_platform/lib/cortex-m33/soft-float/no-interrupts/libnrf_cc312_platform_0.9.18.a(aes_alt.c.obj)
 *fill*         0x0000000000005a5f        0x1 
 .rodata.cc_mbedtls_sha256_init.str1.4
                0x0000000000005a60        0xe /home/jordan/ncs/v2.5.1/nrfxlib/crypto/nrf_cc312_platform/lib/cortex-m33/soft-float/no-interrupts/libnrf_cc312_platform_0.9.18.a(sha256_alt.c.obj)
 .rodata.ProcessHashDrv.str1.4
                0x0000000000005a6e       0x6f /home/jordan/ncs/v2.5.1/nrfxlib/crypto/nrf_cc312_platform/lib/cortex-m33/soft-float/no-interrupts/libnrf_cc312_platform_0.9.18.a(hash_driver.c.obj)
 *fill*         0x0000000000005a6e        0x2 
 .rodata.HASH_LARVAL_SHA256
                0x0000000000005a70       0x20 /home/jordan/ncs/v2.5.1/nrfxlib/crypto/nrf_cc312_platform/lib/cortex-m33/soft-float/no-interrupts/libnrf_cc312_platform_0.9.18.a(hash_driver.c.obj)
 .rodata.HASH_LARVAL_SHA224
                0x0000000000005a90       0x20 /home/jordan/ncs/v2.5.1/nrfxlib/crypto/nrf_cc312_platform/lib/cortex-m33/soft-float/no-interrupts/libnrf_cc312_platform_0.9.18.a(hash_driver.c.obj)
 .rodata.HASH_LARVAL_SHA1
                0x0000000000005ab0       0x14 /home/jordan/ncs/v2.5.1/nrfxlib/crypto/nrf_cc312_platform/lib/cortex-m33/soft-float/no-interrupts/libnrf_cc312_platform_0.9.18.a(hash_driver.c.obj)
 .rodata.ProcessAesDrv.str1.4
                0x0000000000005ac4       0x6f /home/jordan/ncs/v2.5.1/nrfxlib/crypto/nrf_cc312_platform/lib/cortex-m33/soft-float/no-interrupts/libnrf_cc312_platform_0.9.18.a(aes_driver.c.obj)
 .rodata._global_impure_ptr
                0x0000000000005ac4        0x4 /home/jordan/ncs/toolchains/7795df4459/opt/zephyr-sdk/arm-zephyr-eabi/bin/../lib/gcc/arm-zephyr-eabi/12.2.0/../../../../arm-zephyr-eabi/lib/thumb/v8-m.main/nofp/libc_nano.a(lib_a-impure.o)
                0x0000000000005ac4                _global_impure_ptr
 *(.eh_frame*)
 .eh_frame      0x0000000000005ac8        0x0 /home/jordan/ncs/toolchains/7795df4459/opt/zephyr-sdk/arm-zephyr-eabi/bin/../lib/gcc/arm-zephyr-eabi/12.2.0/thumb/v8-m.main/nofp/crtbegin.o
 .eh_frame      0x0000000000005ac8        0x4 /home/jordan/ncs/toolchains/7795df4459/opt/zephyr-sdk/arm-zephyr-eabi/bin/../lib/gcc/arm-zephyr-eabi/12.2.0/thumb/v8-m.main/nofp/crtend.o
                0x0000000000005b40                . = ALIGN (0x20)
 *fill*         0x0000000000005acc       0x14 
                0x00000000000025a0                Image$$TFM_UNPRIV_CODE$$RO$$Base = ADDR (.TFM_UNPRIV_CODE)
                0x0000000000005ae0                Image$$TFM_UNPRIV_CODE$$RO$$Limit = (ADDR (.TFM_UNPRIV_CODE) + SIZEOF (.TFM_UNPRIV_CODE))

.glue_7         0x0000000000005ae0        0x0
 .glue_7        0x0000000000005ae0        0x0 linker stubs

.glue_7t        0x0000000000005ae0        0x0
 .glue_7t       0x0000000000005ae0        0x0 linker stubs

.vfp11_veneer   0x0000000000005ae0        0x0
 .vfp11_veneer  0x0000000000005ae0        0x0 linker stubs

.v4_bx          0x0000000000005ae0        0x0
 .v4_bx         0x0000000000005ae0        0x0 linker stubs

.iplt           0x0000000000005ae0        0x0
 .iplt          0x0000000000005ae0        0x0 /home/jordan/ncs/toolchains/7795df4459/opt/zephyr-sdk/arm-zephyr-eabi/bin/../lib/gcc/arm-zephyr-eabi/12.2.0/thumb/v8-m.main/nofp/crtbegin.o

.psa_interface_cross_call
                0x0000000000005ae0       0x8c
 .psa_interface_cross_call
                0x0000000000005ae0       0x8c secure_fw/partitions/lib/runtime/libtfm_sprt.a(psa_interface_cross.o)
                0x0000000000005ae0                psa_framework_version_cross
                0x0000000000005ae8                psa_version_cross
                0x0000000000005af0                tfm_psa_call_pack_cross
                0x0000000000005af8                psa_wait_cross
                0x0000000000005b00                psa_get_cross
                0x0000000000005b08                psa_read_cross
                0x0000000000005b10                psa_skip_cross
                0x0000000000005b18                psa_write_cross
                0x0000000000005b20                psa_reply_cross
                0x0000000000005b28                psa_panic_cross
                0x0000000000005b30                psa_rot_lifecycle_state_cross

.rel.dyn        0x0000000000005b6c        0x0
 .rel.iplt      0x0000000000005b6c        0x0 /home/jordan/ncs/toolchains/7795df4459/opt/zephyr-sdk/arm-zephyr-eabi/bin/../lib/gcc/arm-zephyr-eabi/12.2.0/thumb/v8-m.main/nofp/crtbegin.o

.gnu.sgstubs    0x0000000000007c00       0x40
 *(.gnu.sgstubs*)
 .gnu.sgstubs.__stub
                0x0000000000007c00       0x28 linker stubs
                0x0000000000007c00                tfm_psa_framework_version_veneer
                0x0000000000007c08                tfm_psa_version_veneer
                0x0000000000007c10                tfm_psa_close_veneer
                0x0000000000007c18                tfm_psa_connect_veneer
                0x0000000000007c20                tfm_psa_call_veneer

.sgstubs_end    0x0000000000008000        0x0

.TFM_DATA       0x0000000020001e20       0xf4 load address 0x0000000000007c40
 *(.data*)
 .data.ret_err  0x0000000020001e20        0x4 secure_fw/CMakeFiles/tfm_s.dir/partitions/ns_agent_tz/psa_api_veneers_v80m.o
                0x0000000020001e20                ret_err
 .data.dev_mpu_s
                0x0000000020001e24        0x4 secure_fw/spm/libtfm_spm.a(tfm_hal_isolation.o)
                0x0000000020001e24                dev_mpu_s
 .data.serv_pool_sa
                0x0000000020001e28        0x4 secure_fw/spm/libtfm_spm.a(rom_loader.o)
 .data.part_pool_sa
                0x0000000020001e2c        0x4 secure_fw/spm/libtfm_spm.a(rom_loader.o)
 .data.ldinf_sa
                0x0000000020001e30        0x4 secure_fw/spm/libtfm_spm.a(rom_loader.o)
 .data.mbedtls_free_func
                0x0000000020001e34        0x4 secure_fw/partitions/crypto/mbedcrypto/nrf_security_src/libcrypto_service_mbedcrypto.a(platform.o)
 .data.mbedtls_calloc_func
                0x0000000020001e38        0x4 secure_fw/partitions/crypto/mbedcrypto/nrf_security_src/libcrypto_service_mbedcrypto.a(platform.o)
 .data.invalid_aes_256_bit_key
                0x0000000020001e3c        0x4 /home/jordan/ncs/v2.5.1/nrfxlib/crypto/nrf_cc312_platform/lib/cortex-m33/soft-float/no-interrupts/libnrf_cc312_platform_0.9.18.a(cc_lib.c.obj)
                0x0000000020001e3c                invalid_aes_256_bit_key
 .data.pCCRndCryptoMutex
                0x0000000020001e40        0x4 /home/jordan/ncs/v2.5.1/nrfxlib/crypto/nrf_cc312_platform/lib/cortex-m33/soft-float/no-interrupts/libnrf_cc312_platform_0.9.18.a(cc_pal.c.obj)
                0x0000000020001e40                pCCRndCryptoMutex
 .data.CCPowerMutex
                0x0000000020001e44        0x4 /home/jordan/ncs/v2.5.1/nrfxlib/crypto/nrf_cc312_platform/lib/cortex-m33/soft-float/no-interrupts/libnrf_cc312_platform_0.9.18.a(cc_pal.c.obj)
                0x0000000020001e44                CCPowerMutex
 .data.CCRndCryptoMutex
                0x0000000020001e48        0x4 /home/jordan/ncs/v2.5.1/nrfxlib/crypto/nrf_cc312_platform/lib/cortex-m33/soft-float/no-interrupts/libnrf_cc312_platform_0.9.18.a(cc_pal.c.obj)
                0x0000000020001e48                CCRndCryptoMutex
 .data.CCAsymCryptoMutex
                0x0000000020001e4c        0x4 /home/jordan/ncs/v2.5.1/nrfxlib/crypto/nrf_cc312_platform/lib/cortex-m33/soft-float/no-interrupts/libnrf_cc312_platform_0.9.18.a(cc_pal.c.obj)
                0x0000000020001e4c                CCAsymCryptoMutex
 .data.CCSymCryptoMutex
                0x0000000020001e50        0x4 /home/jordan/ncs/v2.5.1/nrfxlib/crypto/nrf_cc312_platform/lib/cortex-m33/soft-float/no-interrupts/libnrf_cc312_platform_0.9.18.a(cc_pal.c.obj)
                0x0000000020001e50                CCSymCryptoMutex
 .data.mbedtls_mutex_unlock
                0x0000000020001e54        0x4 /home/jordan/ncs/v2.5.1/nrfxlib/crypto/nrf_cc312_platform/lib/cortex-m33/soft-float/no-interrupts/libnrf_cc312_platform_0.9.18.a(threading_alt.c.obj)
                0x0000000020001e54                mbedtls_mutex_unlock
 .data.mbedtls_mutex_lock
                0x0000000020001e58        0x4 /home/jordan/ncs/v2.5.1/nrfxlib/crypto/nrf_cc312_platform/lib/cortex-m33/soft-float/no-interrupts/libnrf_cc312_platform_0.9.18.a(threading_alt.c.obj)
                0x0000000020001e58                mbedtls_mutex_lock
 .data.mbedtls_mutex_init
                0x0000000020001e5c        0x4 /home/jordan/ncs/v2.5.1/nrfxlib/crypto/nrf_cc312_platform/lib/cortex-m33/soft-float/no-interrupts/libnrf_cc312_platform_0.9.18.a(threading_alt.c.obj)
                0x0000000020001e5c                mbedtls_mutex_init
 .data.platform_abort_apis
                0x0000000020001e60        0x8 /home/jordan/ncs/v2.5.1/nrfxlib/crypto/nrf_cc312_platform/lib/cortex-m33/soft-float/no-interrupts/libnrf_cc312_platform_0.9.18.a(nrf_cc3xx_platform_abort.c.obj)
                0x0000000020001e60                platform_abort_apis
 .data.platform_mutexes
                0x0000000020001e68       0x14 /home/jordan/ncs/v2.5.1/nrfxlib/crypto/nrf_cc312_platform/lib/cortex-m33/soft-float/no-interrupts/libnrf_cc312_platform_0.9.18.a(nrf_cc3xx_platform_mutex.c.obj)
                0x0000000020001e68                platform_mutexes
 .data.platform_mutex_apis
                0x0000000020001e7c       0x10 /home/jordan/ncs/v2.5.1/nrfxlib/crypto/nrf_cc312_platform/lib/cortex-m33/soft-float/no-interrupts/libnrf_cc312_platform_0.9.18.a(nrf_cc3xx_platform_mutex.c.obj)
                0x0000000020001e7c                platform_mutex_apis
 .data.power_mutex
                0x0000000020001e8c        0x8 /home/jordan/ncs/v2.5.1/nrfxlib/crypto/nrf_cc312_platform/lib/cortex-m33/soft-float/no-interrupts/libnrf_cc312_platform_0.9.18.a(nrf_cc3xx_platform_mutex.c.obj)
 .data.rng_mutex
                0x0000000020001e94        0x8 /home/jordan/ncs/v2.5.1/nrfxlib/crypto/nrf_cc312_platform/lib/cortex-m33/soft-float/no-interrupts/libnrf_cc312_platform_0.9.18.a(nrf_cc3xx_platform_mutex.c.obj)
 .data.asym_mutex
                0x0000000020001e9c        0x8 /home/jordan/ncs/v2.5.1/nrfxlib/crypto/nrf_cc312_platform/lib/cortex-m33/soft-float/no-interrupts/libnrf_cc312_platform_0.9.18.a(nrf_cc3xx_platform_mutex.c.obj)
 .data.sym_mutex
                0x0000000020001ea4        0x8 /home/jordan/ncs/v2.5.1/nrfxlib/crypto/nrf_cc312_platform/lib/cortex-m33/soft-float/no-interrupts/libnrf_cc312_platform_0.9.18.a(nrf_cc3xx_platform_mutex.c.obj)
 .data.impure_data
                0x0000000020001eac       0x60 /home/jordan/ncs/toolchains/7795df4459/opt/zephyr-sdk/arm-zephyr-eabi/bin/../lib/gcc/arm-zephyr-eabi/12.2.0/../../../../arm-zephyr-eabi/lib/thumb/v8-m.main/nofp/libc_nano.a(lib_a-impure.o)
                0x0000000020001f0c                . = ALIGN (0x4)
                0x0000000020001f0c                PROVIDE (__preinit_array_start = .)
 *(.preinit_array)
                0x0000000020001f0c                PROVIDE (__preinit_array_end = .)
                0x0000000020001f0c                . = ALIGN (0x4)
                0x0000000020001f0c                PROVIDE (__init_array_start = .)
 *(SORT_BY_NAME(.init_array.*))
 *(.init_array)
 .init_array    0x0000000020001f0c        0x4 /home/jordan/ncs/toolchains/7795df4459/opt/zephyr-sdk/arm-zephyr-eabi/bin/../lib/gcc/arm-zephyr-eabi/12.2.0/thumb/v8-m.main/nofp/crtbegin.o
                0x0000000020001f10                PROVIDE (__init_array_end = .)
                0x0000000020001f10                . = ALIGN (0x4)
                [!provide]                        PROVIDE (__fini_array_start = .)
 *(SORT_BY_NAME(.fini_array.*))
 *(.fini_array)
 .fini_array    0x0000000020001f10        0x4 /home/jordan/ncs/toolchains/7795df4459/opt/zephyr-sdk/arm-zephyr-eabi/bin/../lib/gcc/arm-zephyr-eabi/12.2.0/thumb/v8-m.main/nofp/crtbegin.o
                [!provide]                        PROVIDE (__fini_array_end = .)
 *(.jcr*)
                0x0000000020001f14                . = ALIGN (0x4)
                0x0000000020001e20                Image$$ER_TFM_DATA$$RW$$Base = ADDR (.TFM_DATA)
                0x0000000020001f14                Image$$ER_TFM_DATA$$RW$$Limit = (ADDR (.TFM_DATA) + SIZEOF (.TFM_DATA))

.tm_clone_table
                0x0000000020001f14        0x0 load address 0x0000000000007d34
 .tm_clone_table
                0x0000000020001f14        0x0 /home/jordan/ncs/toolchains/7795df4459/opt/zephyr-sdk/arm-zephyr-eabi/bin/../lib/gcc/arm-zephyr-eabi/12.2.0/thumb/v8-m.main/nofp/crtbegin.o
 .tm_clone_table
                0x0000000020001f14        0x0 /home/jordan/ncs/toolchains/7795df4459/opt/zephyr-sdk/arm-zephyr-eabi/bin/../lib/gcc/arm-zephyr-eabi/12.2.0/thumb/v8-m.main/nofp/crtend.o

.igot.plt       0x0000000020001f14        0x0 load address 0x0000000000007d34
 .igot.plt      0x0000000020001f14        0x0 /home/jordan/ncs/toolchains/7795df4459/opt/zephyr-sdk/arm-zephyr-eabi/bin/../lib/gcc/arm-zephyr-eabi/12.2.0/thumb/v8-m.main/nofp/crtbegin.o

.TFM_BSS        0x0000000020001f20     0x1a70
                0x0000000020001f20                __bss_start__ = .
                0x0000000020001f20                __partition_runtime_start__ = .
 *(.bss.part_runtime_priority_lowest)
 .bss.part_runtime_priority_lowest
                0x0000000020001f20       0x4c secure_fw/CMakeFiles/tfm_s.dir/partitions/ns_agent_tz/load_info_ns_agent_tz.o
 *(.bss.part_runtime_priority_low)
 *(.bss.part_runtime_priority_normal)
 .bss.part_runtime_priority_normal
                0x0000000020001f6c       0x4c secure_fw/CMakeFiles/tfm_s.dir/__/generated/secure_fw/partitions/crypto/auto_generated/load_info_tfm_crypto.o
 .bss.part_runtime_priority_normal
                0x0000000020001fb8       0x4c secure_fw/CMakeFiles/tfm_s.dir/__/generated/secure_fw/partitions/platform/auto_generated/load_info_tfm_platform.o
 *(.bss.part_runtime_priority_high)
                0x0000000020002004                __partition_runtime_end__ = .
                0x0000000020002004                . = ALIGN (0x4)
                0x0000000020002004                __service_runtime_start__ = .
 *(.bss.serv_runtime_priority_lowest)
 *(.bss.serv_runtime_priority_low)
 *(.bss.serv_runtime_priority_normal)
 .bss.serv_runtime_priority_normal
                0x0000000020002004        0xc secure_fw/CMakeFiles/tfm_s.dir/__/generated/secure_fw/partitions/crypto/auto_generated/load_info_tfm_crypto.o
 .bss.serv_runtime_priority_normal
                0x0000000020002010        0xc secure_fw/CMakeFiles/tfm_s.dir/__/generated/secure_fw/partitions/platform/auto_generated/load_info_tfm_platform.o
 *(.bss.serv_runtime_priority_high)
                0x000000002000201c                __service_runtime_end__ = .
 *(.bss*)
 .bss           0x000000002000201c       0x1c /home/jordan/ncs/toolchains/7795df4459/opt/zephyr-sdk/arm-zephyr-eabi/bin/../lib/gcc/arm-zephyr-eabi/12.2.0/thumb/v8-m.main/nofp/crtbegin.o
 *fill*         0x0000000020002038        0x8 
 .bss.ns_agent_tz_stack
                0x0000000020002040      0x400 secure_fw/CMakeFiles/tfm_s.dir/partitions/ns_agent_tz/load_info_ns_agent_tz.o
                0x0000000020002040                ns_agent_tz_stack
 .bss.spm_boundary
                0x0000000020002440        0x4 secure_fw/spm/libtfm_spm.a(main.o)
                0x0000000020002440                spm_boundary
 .bss.scheduler_lock
                0x0000000020002444        0x4 secure_fw/spm/libtfm_spm.a(tfm_arch_v8m_main.o)
                0x0000000020002444                scheduler_lock
 .bss.n_configured_regions
                0x0000000020002448        0x4 secure_fw/spm/libtfm_spm.a(tfm_hal_isolation.o)
 .bss.is_boot_data_valid
                0x000000002000244c        0x4 secure_fw/spm/libtfm_spm.a(tfm_boot_data.o)
 .bss.loop_index
                0x0000000020002450        0x4 secure_fw/spm/libtfm_spm.a(spm_ipc.o)
 .bss.connection_pool_pool_buf
                0x0000000020002454      0x42c secure_fw/spm/libtfm_spm.a(spm_ipc.o)
 .bss.stateless_services_ref_tbl
                0x0000000020002880       0x80 secure_fw/spm/libtfm_spm.a(spm_ipc.o)
                0x0000000020002880                stateless_services_ref_tbl
 .bss.services_listhead
                0x0000000020002900        0x8 secure_fw/spm/libtfm_spm.a(spm_ipc.o)
 .bss.partition_meta_indicator_pos
                0x0000000020002908        0x4 secure_fw/spm/libtfm_spm.a(backend_ipc.o)
                0x0000000020002908                partition_meta_indicator_pos
 .bss.p_spm_thread_context
                0x000000002000290c        0x4 secure_fw/spm/libtfm_spm.a(backend_ipc.o)
                0x000000002000290c                p_spm_thread_context
 .bss.partition_listhead
                0x0000000020002910        0x8 secure_fw/spm/libtfm_spm.a(backend_ipc.o)
                0x0000000020002910                partition_listhead
 .bss.query_state_cb
                0x0000000020002918        0x4 secure_fw/spm/libtfm_spm.a(thread.o)
 .bss.p_rnbl_head
                0x000000002000291c        0x4 secure_fw/spm/libtfm_spm.a(thread.o)
 .bss.p_thrd_head
                0x0000000020002920        0x4 secure_fw/spm/libtfm_spm.a(thread.o)
 .bss.p_curr_thrd
                0x0000000020002924        0x4 secure_fw/spm/libtfm_spm.a(thread.o)
                0x0000000020002924                p_curr_thrd
 .bss.heap      0x0000000020002928       0x14 secure_fw/partitions/crypto/mbedcrypto/nrf_security_src/libcrypto_service_mbedcrypto.a(memory_buffer_alloc.o)
 .bss.global_data
                0x000000002000293c        0x8 secure_fw/partitions/crypto/mbedcrypto/nrf_security_src/libcrypto_service_mbedcrypto.a(psa_crypto.o)
 .bss.global_data
                0x0000000020002944      0x584 secure_fw/partitions/crypto/mbedcrypto/nrf_security_src/libcrypto_service_mbedcrypto.a(psa_crypto_slot_management.o)
 .bss.nrf_cc3xx_platform_rng_initialized
                0x0000000020002ec8        0x4 /home/jordan/ncs/v2.5.1/nrfxlib/crypto/nrf_cc312_platform/lib/cortex-m33/soft-float/no-interrupts/libnrf_cc312_platform_0.9.18.a(nrf_cc3xx_platform.c.obj)
 .bss.nrf_cc3xx_platform_initialized
                0x0000000020002ecc        0x4 /home/jordan/ncs/v2.5.1/nrfxlib/crypto/nrf_cc312_platform/lib/cortex-m33/soft-float/no-interrupts/libnrf_cc312_platform_0.9.18.a(nrf_cc3xx_platform.c.obj)
 .bss.nrf_cc3xx_platform_ctr_drbg_global_ctx
                0x0000000020002ed0      0x1c0 /home/jordan/ncs/v2.5.1/nrfxlib/crypto/nrf_cc312_platform/lib/cortex-m33/soft-float/no-interrupts/libnrf_cc312_platform_0.9.18.a(nrf_cc3xx_platform_ctr_drbg.c.obj)
                0x0000000020002ed0                nrf_cc3xx_platform_ctr_drbg_global_ctx
 .bss.buf.0     0x0000000020003090      0x1a0 /home/jordan/ncs/v2.5.1/nrfxlib/crypto/nrf_cc312_platform/lib/cortex-m33/soft-float/no-interrupts/libnrf_cc312_platform_0.9.18.a(ctr_drbg.c.obj)
 .bss.seed.1    0x0000000020003230      0x180 /home/jordan/ncs/v2.5.1/nrfxlib/crypto/nrf_cc312_platform/lib/cortex-m33/soft-float/no-interrupts/libnrf_cc312_platform_0.9.18.a(ctr_drbg.c.obj)
 .bss.rndWorkbuff.0
                0x00000000200033b0      0x220 /home/jordan/ncs/v2.5.1/nrfxlib/crypto/nrf_cc312_platform/lib/cortex-m33/soft-float/no-interrupts/libnrf_cc312_platform_0.9.18.a(cc_lib.c.obj)
 .bss.random_seed_filled
                0x00000000200035d0        0x4 /home/jordan/ncs/v2.5.1/nrfxlib/crypto/nrf_cc312_platform/lib/cortex-m33/soft-float/no-interrupts/libnrf_cc312_platform_0.9.18.a(cc_lib.c.obj)
 .bss.random_seed_buffer
                0x00000000200035d4       0x68 /home/jordan/ncs/v2.5.1/nrfxlib/crypto/nrf_cc312_platform/lib/cortex-m33/soft-float/no-interrupts/libnrf_cc312_platform_0.9.18.a(cc_lib.c.obj)
 .bss.use_count
                0x000000002000363c        0x4 /home/jordan/ncs/v2.5.1/nrfxlib/crypto/nrf_cc312_platform/lib/cortex-m33/soft-float/no-interrupts/libnrf_cc312_platform_0.9.18.a(cc_pal_pm.c.obj)
 .bss.power_mutex_int
                0x0000000020003640        0x4 /home/jordan/ncs/v2.5.1/nrfxlib/crypto/nrf_cc312_platform/lib/cortex-m33/soft-float/no-interrupts/libnrf_cc312_platform_0.9.18.a(nrf_cc3xx_platform_mutex.c.obj)
 .bss.rng_mutex_int
                0x0000000020003644        0x4 /home/jordan/ncs/v2.5.1/nrfxlib/crypto/nrf_cc312_platform/lib/cortex-m33/soft-float/no-interrupts/libnrf_cc312_platform_0.9.18.a(nrf_cc3xx_platform_mutex.c.obj)
 .bss.asym_mutex_int
                0x0000000020003648        0x4 /home/jordan/ncs/v2.5.1/nrfxlib/crypto/nrf_cc312_platform/lib/cortex-m33/soft-float/no-interrupts/libnrf_cc312_platform_0.9.18.a(nrf_cc3xx_platform_mutex.c.obj)
 .bss.sym_mutex_int
                0x000000002000364c        0x4 /home/jordan/ncs/v2.5.1/nrfxlib/crypto/nrf_cc312_platform/lib/cortex-m33/soft-float/no-interrupts/libnrf_cc312_platform_0.9.18.a(nrf_cc3xx_platform_mutex.c.obj)
 .bss.rndState.0
                0x0000000020003650        0x4 /home/jordan/ncs/v2.5.1/nrfxlib/crypto/nrf_cc312_platform/lib/cortex-m33/soft-float/no-interrupts/libnrf_cc312_platform_0.9.18.a(trng_api.c.obj)
 .bss.trngParams.1
                0x0000000020003654       0x28 /home/jordan/ncs/v2.5.1/nrfxlib/crypto/nrf_cc312_platform/lib/cortex-m33/soft-float/no-interrupts/libnrf_cc312_platform_0.9.18.a(trng_api.c.obj)
 .bss.rndWorkBuffer.2
                0x000000002000367c      0x220 /home/jordan/ncs/v2.5.1/nrfxlib/crypto/nrf_cc312_platform/lib/cortex-m33/soft-float/no-interrupts/libnrf_cc312_platform_0.9.18.a(trng_api.c.obj)
 .bss.ctx.0     0x000000002000389c       0xf4 /home/jordan/ncs/v2.5.1/nrfxlib/crypto/nrf_cc312_platform/lib/cortex-m33/soft-float/no-interrupts/libnrf_cc312_platform_0.9.18.a(sha256.c.obj)
 *(COMMON)
                0x0000000020003990                . = ALIGN (0x4)
                0x0000000020003990                __bss_end__ = .
                0x0000000020001f20                Image$$ER_TFM_DATA$$ZI$$Base = ADDR (.TFM_BSS)
                0x0000000020003990                Image$$ER_TFM_DATA$$ZI$$Limit = (ADDR (.TFM_BSS) + SIZEOF (.TFM_BSS))
                0x0000000020001f20                Image$$ER_PART_RT_POOL$$ZI$$Base = __partition_runtime_start__
                0x0000000020002004                Image$$ER_PART_RT_POOL$$ZI$$Limit = __partition_runtime_end__
                0x0000000020002004                Image$$ER_SERV_RT_POOL$$ZI$$Base = __service_runtime_start__
                0x000000002000201c                Image$$ER_SERV_RT_POOL$$ZI$$Limit = __service_runtime_end__
                0x0000000020001e20                Image$$ER_TFM_DATA$$Base = ADDR (.TFM_DATA)
                0x0000000020003984                Image$$ER_TFM_DATA$$Limit = ((ADDR (.TFM_DATA) + SIZEOF (.TFM_DATA)) + SIZEOF (.TFM_BSS))
                0x0000000000007c00                Image$$ER_VENEER$$Base = ADDR (.gnu.sgstubs)
                0x0000000000008000                Image$$VENEER_ALIGN$$Limit = ADDR (.sgstubs_end)
                0x0000000000000001                ASSERT (((Image$$VENEER_ALIGN$$Limit - Image$$ER_VENEER$$Base) <= 0x400), Veneer region overflowed)
                0x0000000000008000                Load$$LR$$LR_NS_PARTITION$$Base = 0x8000
                0x0000000020000bf8                PROVIDE (__stack = Image$$ARM_LIB_STACK$$ZI$$Limit)
OUTPUT(bin/tfm_s.axf elf32-littlearm)
LOAD linker stubs

.ARM.attributes
                0x0000000000000000       0x30
 .ARM.attributes
                0x0000000000000000       0x22 /home/jordan/ncs/toolchains/7795df4459/opt/zephyr-sdk/arm-zephyr-eabi/bin/../lib/gcc/arm-zephyr-eabi/12.2.0/thumb/v8-m.main/nofp/crti.o
 .ARM.attributes
                0x0000000000000022       0x32 /home/jordan/ncs/toolchains/7795df4459/opt/zephyr-sdk/arm-zephyr-eabi/bin/../lib/gcc/arm-zephyr-eabi/12.2.0/thumb/v8-m.main/nofp/crtbegin.o
 .ARM.attributes
                0x0000000000000054       0x20 /home/jordan/ncs/toolchains/7795df4459/opt/zephyr-sdk/arm-zephyr-eabi/bin/../lib/gcc/arm-zephyr-eabi/12.2.0/../../../../arm-zephyr-eabi/lib/thumb/v8-m.main/nofp/crt0.o
 .ARM.attributes
                0x0000000000000074       0x32 secure_fw/CMakeFiles/tfm_s.dir/__/platform/ext/target/nordic_nrf/common/core/startup.o
 .ARM.attributes
                0x00000000000000a6       0x32 secure_fw/CMakeFiles/tfm_s.dir/__/platform/ext/target/nordic_nrf/common/core/startup_nrf5340.o
 .ARM.attributes
                0x00000000000000d8       0x32 secure_fw/CMakeFiles/tfm_s.dir/__/platform/ext/common/faults.o
 .ARM.attributes
                0x000000000000010a       0x32 secure_fw/CMakeFiles/tfm_s.dir/__/generated/secure_fw/partitions/crypto/auto_generated/load_info_tfm_crypto.o
 .ARM.attributes
                0x000000000000013c       0x32 secure_fw/CMakeFiles/tfm_s.dir/__/generated/secure_fw/partitions/platform/auto_generated/load_info_tfm_platform.o
 .ARM.attributes
                0x000000000000016e       0x32 secure_fw/CMakeFiles/tfm_s.dir/partitions/ns_agent_tz/load_info_ns_agent_tz.o
 .ARM.attributes
                0x00000000000001a0       0x32 platform/libplatform_s.a(system_nrf5340_application.o)
 .ARM.attributes
                0x00000000000001d2       0x32 secure_fw/partitions/lib/runtime/libtfm_sprt.a(crt_memset.o)
 .ARM.attributes
                0x0000000000000204       0x32 secure_fw/partitions/lib/runtime/libtfm_sprt.a(psa_api_ipc.o)
 .ARM.attributes
                0x0000000000000236       0x32 secure_fw/partitions/lib/runtime/libtfm_sprt.a(sprt_partition_metadata_indicator.o)
 .ARM.attributes
                0x0000000000000268       0x32 secure_fw/spm/libtfm_spm.a(utilities.o)
 .ARM.attributes
                0x000000000000029a       0x32 secure_fw/spm/libtfm_spm.a(main.o)
 .ARM.attributes
                0x00000000000002cc       0x32 secure_fw/spm/libtfm_spm.a(tfm_core_svcalls_ipc.o)
 .ARM.attributes
                0x00000000000002fe       0x32 secure_fw/spm/libtfm_spm.a(tfm_arch_v8m_main.o)
 .ARM.attributes
                0x0000000000000330       0x32 secure_fw/spm/libtfm_spm.a(ns_agent_tz_v80m.o)
 .ARM.attributes
                0x0000000000000362       0x32 secure_fw/spm/libtfm_spm.a(tfm_hal_isolation.o)
 .ARM.attributes
                0x0000000000000394       0x32 secure_fw/spm/libtfm_spm.a(faults.o)
 .ARM.attributes
                0x00000000000003c6       0x32 secure_fw/spm/libtfm_spm.a(target_cfg.o)
 .ARM.attributes
                0x00000000000003f8       0x32 secure_fw/spm/libtfm_spm.a(tfm_boot_data.o)
 .ARM.attributes
                0x000000000000042a       0x32 secure_fw/spm/libtfm_spm.a(tfm_arch.o)
 .ARM.attributes
                0x000000000000045c       0x32 secure_fw/spm/libtfm_spm.a(spm_ipc.o)
 .ARM.attributes
                0x000000000000048e       0x32 secure_fw/spm/libtfm_spm.a(spm_cross_call.o)
 .ARM.attributes
                0x00000000000004c0       0x32 secure_fw/spm/libtfm_spm.a(rom_loader.o)
 .ARM.attributes
                0x00000000000004f2       0x32 secure_fw/spm/libtfm_spm.a(psa_api.o)
 .ARM.attributes
                0x0000000000000524       0x32 secure_fw/spm/libtfm_spm.a(backend_ipc.o)
 .ARM.attributes
                0x0000000000000556       0x32 secure_fw/spm/libtfm_spm.a(tfm_pools.o)
 .ARM.attributes
                0x0000000000000588       0x32 secure_fw/spm/libtfm_spm.a(thread.o)
 .ARM.attributes
                0x00000000000005ba       0x32 secure_fw/spm/libtfm_spm.a(tfm_spm_ns_ctx.o)
 .ARM.attributes
                0x00000000000005ec       0x32 secure_fw/spm/libtfm_spm.a(tfm_hal_platform_common.o)
 .ARM.attributes
                0x000000000000061e       0x32 secure_fw/partitions/crypto/libtfm_psa_rot_partition_crypto.a(crypto_init.o)
 .ARM.attributes
                0x0000000000000650       0x32 secure_fw/partitions/crypto/libtfm_psa_rot_partition_crypto.a(crypto_alloc.o)
 .ARM.attributes
                0x0000000000000682       0x32 secure_fw/partitions/crypto/libtfm_psa_rot_partition_crypto.a(crypto_cipher.o)
 .ARM.attributes
                0x00000000000006b4       0x32 secure_fw/partitions/crypto/libtfm_psa_rot_partition_crypto.a(crypto_hash.o)
 .ARM.attributes
                0x00000000000006e6       0x32 secure_fw/partitions/crypto/libtfm_psa_rot_partition_crypto.a(crypto_mac.o)
 .ARM.attributes
                0x0000000000000718       0x32 secure_fw/partitions/crypto/libtfm_psa_rot_partition_crypto.a(crypto_aead.o)
 .ARM.attributes
                0x000000000000074a       0x32 secure_fw/partitions/crypto/libtfm_psa_rot_partition_crypto.a(crypto_asymmetric.o)
 .ARM.attributes
                0x000000000000077c       0x32 secure_fw/partitions/crypto/libtfm_psa_rot_partition_crypto.a(crypto_key_derivation.o)
 .ARM.attributes
                0x00000000000007ae       0x32 secure_fw/partitions/crypto/libtfm_psa_rot_partition_crypto.a(crypto_key_management.o)
 .ARM.attributes
                0x00000000000007e0       0x32 secure_fw/partitions/crypto/libtfm_psa_rot_partition_crypto.a(crypto_rng.o)
 .ARM.attributes
                0x0000000000000812       0x32 secure_fw/partitions/crypto/libtfm_psa_rot_partition_crypto.a(crypto_library.o)
 .ARM.attributes
                0x0000000000000844       0x32 secure_fw/partitions/crypto/libtfm_psa_rot_partition_crypto.a(intermedia_tfm_crypto.o)
 .ARM.attributes
                0x0000000000000876       0x32 platform/libplatform_crypto_keys.a(crypto_keys.o)
 .ARM.attributes
                0x00000000000008a8       0x32 secure_fw/partitions/crypto/mbedcrypto/nrf_security_src/libcrypto_service_mbedcrypto.a(memory_buffer_alloc.o)
 .ARM.attributes
                0x00000000000008da       0x32 secure_fw/partitions/crypto/mbedcrypto/nrf_security_src/libcrypto_service_mbedcrypto.a(platform.o)
 .ARM.attributes
                0x000000000000090c       0x32 secure_fw/partitions/crypto/mbedcrypto/nrf_security_src/libcrypto_service_mbedcrypto.a(psa_crypto.o)
 .ARM.attributes
                0x000000000000093e       0x32 secure_fw/partitions/crypto/mbedcrypto/nrf_security_src/libcrypto_service_mbedcrypto.a(psa_crypto_slot_management.o)
 .ARM.attributes
                0x0000000000000970       0x32 secure_fw/partitions/crypto/mbedcrypto/nrf_security_src/libcrypto_service_mbedcrypto.a(psa_crypto_driver_wrappers.o)
 .ARM.attributes
                0x00000000000009a2       0x32 secure_fw/partitions/platform/libtfm_psa_rot_partition_platform.a(platform_sp.o)
 .ARM.attributes
                0x00000000000009d4       0x32 secure_fw/partitions/platform/libtfm_psa_rot_partition_platform.a(intermedia_tfm_platform.o)
 .ARM.attributes
                0x0000000000000a06       0x32 platform/libplatform_s.a(mpu_armv8m_drv.o)
 .ARM.attributes
                0x0000000000000a38       0x32 platform/libplatform_s.a(spu.o)
 .ARM.attributes
                0x0000000000000a6a       0x32 platform/libplatform_s.a(tfm_hal_platform.o)
 .ARM.attributes
                0x0000000000000a9c       0x32 platform/libplatform_s.a(dummy_otp.o)
 .ARM.attributes
                0x0000000000000ace       0x32 platform/libplatform_s.a(dummy_provisioning.o)
 .ARM.attributes
                0x0000000000000b00       0x32 platform/libplatform_s.a(tfm_platform_system.o)
 .ARM.attributes
                0x0000000000000b32       0x32 platform/libplatform_s.a(tfm_hal_reset_halt.o)
 .ARM.attributes
                0x0000000000000b64       0x32 platform/libplatform_s.a(tfm_platform_hal_ioctl.o)
 .ARM.attributes
                0x0000000000000b96       0x32 secure_fw/partitions/lib/runtime/libtfm_sprt.a(crt_memcpy.o)
 .ARM.attributes
                0x0000000000000bc8       0x32 secure_fw/partitions/lib/runtime/libtfm_sprt.a(sfn_common_thread.o)
 .ARM.attributes
                0x0000000000000bfa       0x32 secure_fw/partitions/lib/runtime/libtfm_sprt.a(psa_interface_cross.o)
 .ARM.attributes
                0x0000000000000c2c       0x32 secure_fw/spm/libtfm_spm.a(psa_call_api.o)
 .ARM.attributes
                0x0000000000000c5e       0x32 secure_fw/spm/libtfm_spm.a(psa_version_api.o)
 .ARM.attributes
                0x0000000000000c90       0x32 secure_fw/spm/libtfm_spm.a(psa_read_write_skip_api.o)
 .ARM.attributes
                0x0000000000000cc2       0x32 secure_fw/partitions/crypto/libtfm_psa_rot_partition_crypto.a(tfm_builtin_key_loader.o)
 .ARM.attributes
                0x0000000000000cf4       0x34 /home/jordan/ncs/v2.5.1/nrfxlib/crypto/nrf_cc312_platform/lib/cortex-m33/soft-float/no-interrupts/libnrf_cc312_platform_0.9.18.a(nrf_cc3xx_platform.c.obj)
 .ARM.attributes
                0x0000000000000d28       0x34 /home/jordan/ncs/v2.5.1/nrfxlib/crypto/nrf_cc312_platform/lib/cortex-m33/soft-float/no-interrupts/libnrf_cc312_platform_0.9.18.a(nrf_cc3xx_platform_ctr_drbg.c.obj)
 .ARM.attributes
                0x0000000000000d5c       0x34 /home/jordan/ncs/v2.5.1/nrfxlib/crypto/nrf_cc312_platform/lib/cortex-m33/soft-float/no-interrupts/libnrf_cc312_platform_0.9.18.a(mbedtls_common.c.obj)
 .ARM.attributes
                0x0000000000000d90       0x34 /home/jordan/ncs/v2.5.1/nrfxlib/crypto/nrf_cc312_platform/lib/cortex-m33/soft-float/no-interrupts/libnrf_cc312_platform_0.9.18.a(ctr_drbg.c.obj)
 .ARM.attributes
                0x0000000000000dc4       0x34 /home/jordan/ncs/v2.5.1/nrfxlib/crypto/nrf_cc312_platform/lib/cortex-m33/soft-float/no-interrupts/libnrf_cc312_platform_0.9.18.a(entropy.c.obj)
 .ARM.attributes
                0x0000000000000df8       0x34 /home/jordan/ncs/v2.5.1/nrfxlib/crypto/nrf_cc312_platform/lib/cortex-m33/soft-float/no-interrupts/libnrf_cc312_platform_0.9.18.a(cc_lib.c.obj)
 .ARM.attributes
                0x0000000000000e2c       0x34 /home/jordan/ncs/v2.5.1/nrfxlib/crypto/nrf_cc312_platform/lib/cortex-m33/soft-float/no-interrupts/libnrf_cc312_platform_0.9.18.a(cc_hal.c.obj)
 .ARM.attributes
                0x0000000000000e60       0x34 /home/jordan/ncs/v2.5.1/nrfxlib/crypto/nrf_cc312_platform/lib/cortex-m33/soft-float/no-interrupts/libnrf_cc312_platform_0.9.18.a(cc_pal.c.obj)
 .ARM.attributes
                0x0000000000000e94       0x34 /home/jordan/ncs/v2.5.1/nrfxlib/crypto/nrf_cc312_platform/lib/cortex-m33/soft-float/no-interrupts/libnrf_cc312_platform_0.9.18.a(cc_pal_dma.c.obj)
 .ARM.attributes
                0x0000000000000ec8       0x34 /home/jordan/ncs/v2.5.1/nrfxlib/crypto/nrf_cc312_platform/lib/cortex-m33/soft-float/no-interrupts/libnrf_cc312_platform_0.9.18.a(cc_pal_interrupt_ctrl.c.obj)
 .ARM.attributes
                0x0000000000000efc       0x34 /home/jordan/ncs/v2.5.1/nrfxlib/crypto/nrf_cc312_platform/lib/cortex-m33/soft-float/no-interrupts/libnrf_cc312_platform_0.9.18.a(cc_pal_mem.c.obj)
 .ARM.attributes
                0x0000000000000f30       0x34 /home/jordan/ncs/v2.5.1/nrfxlib/crypto/nrf_cc312_platform/lib/cortex-m33/soft-float/no-interrupts/libnrf_cc312_platform_0.9.18.a(cc_pal_mutex.c.obj)
 .ARM.attributes
                0x0000000000000f64       0x34 /home/jordan/ncs/v2.5.1/nrfxlib/crypto/nrf_cc312_platform/lib/cortex-m33/soft-float/no-interrupts/libnrf_cc312_platform_0.9.18.a(cc_pal_pm.c.obj)
 .ARM.attributes
                0x0000000000000f98       0x34 /home/jordan/ncs/v2.5.1/nrfxlib/crypto/nrf_cc312_platform/lib/cortex-m33/soft-float/no-interrupts/libnrf_cc312_platform_0.9.18.a(threading_alt.c.obj)
 .ARM.attributes
                0x0000000000000fcc       0x34 /home/jordan/ncs/v2.5.1/nrfxlib/crypto/nrf_cc312_platform/lib/cortex-m33/soft-float/no-interrupts/libnrf_cc312_platform_0.9.18.a(nrf_cc3xx_platform_abort.c.obj)
 .ARM.attributes
                0x0000000000001000       0x34 /home/jordan/ncs/v2.5.1/nrfxlib/crypto/nrf_cc312_platform/lib/cortex-m33/soft-float/no-interrupts/libnrf_cc312_platform_0.9.18.a(nrf_cc3xx_platform_mutex.c.obj)
 .ARM.attributes
                0x0000000000001034       0x34 /home/jordan/ncs/v2.5.1/nrfxlib/crypto/nrf_cc312_platform/lib/cortex-m33/soft-float/no-interrupts/libnrf_cc312_platform_0.9.18.a(llf_rnd_trng90b.c.obj)
 .ARM.attributes
                0x0000000000001068       0x34 /home/jordan/ncs/v2.5.1/nrfxlib/crypto/nrf_cc312_platform/lib/cortex-m33/soft-float/no-interrupts/libnrf_cc312_platform_0.9.18.a(trng_api.c.obj)
 .ARM.attributes
                0x000000000000109c       0x34 /home/jordan/ncs/v2.5.1/nrfxlib/crypto/nrf_cc312_platform/lib/cortex-m33/soft-float/no-interrupts/libnrf_cc312_platform_0.9.18.a(aes_alt.c.obj)
 .ARM.attributes
                0x00000000000010d0       0x34 /home/jordan/ncs/v2.5.1/nrfxlib/crypto/nrf_cc312_platform/lib/cortex-m33/soft-float/no-interrupts/libnrf_cc312_platform_0.9.18.a(sha256_alt.c.obj)
 .ARM.attributes
                0x0000000000001104       0x34 /home/jordan/ncs/v2.5.1/nrfxlib/crypto/nrf_cc312_platform/lib/cortex-m33/soft-float/no-interrupts/libnrf_cc312_platform_0.9.18.a(mbedtls_hash_common.c.obj)
 .ARM.attributes
                0x0000000000001138       0x34 /home/jordan/ncs/v2.5.1/nrfxlib/crypto/nrf_cc312_platform/lib/cortex-m33/soft-float/no-interrupts/libnrf_cc312_platform_0.9.18.a(sha256.c.obj)
 .ARM.attributes
                0x000000000000116c       0x34 /home/jordan/ncs/v2.5.1/nrfxlib/crypto/nrf_cc312_platform/lib/cortex-m33/soft-float/no-interrupts/libnrf_cc312_platform_0.9.18.a(cc_rng_plat.c.obj)
 .ARM.attributes
                0x00000000000011a0       0x34 /home/jordan/ncs/v2.5.1/nrfxlib/crypto/nrf_cc312_platform/lib/cortex-m33/soft-float/no-interrupts/libnrf_cc312_platform_0.9.18.a(cc_pal_trng.c.obj)
 .ARM.attributes
                0x00000000000011d4       0x34 /home/jordan/ncs/v2.5.1/nrfxlib/crypto/nrf_cc312_platform/lib/cortex-m33/soft-float/no-interrupts/libnrf_cc312_platform_0.9.18.a(llf_rnd.c.obj)
 .ARM.attributes
                0x0000000000001208       0x34 /home/jordan/ncs/v2.5.1/nrfxlib/crypto/nrf_cc312_platform/lib/cortex-m33/soft-float/no-interrupts/libnrf_cc312_platform_0.9.18.a(driver_common.c.obj)
 .ARM.attributes
                0x000000000000123c       0x34 /home/jordan/ncs/v2.5.1/nrfxlib/crypto/nrf_cc312_platform/lib/cortex-m33/soft-float/no-interrupts/libnrf_cc312_platform_0.9.18.a(hash_driver.c.obj)
 .ARM.attributes
                0x0000000000001270       0x34 /home/jordan/ncs/v2.5.1/nrfxlib/crypto/nrf_cc312_platform/lib/cortex-m33/soft-float/no-interrupts/libnrf_cc312_platform_0.9.18.a(aes_driver.c.obj)
 .ARM.attributes
                0x00000000000012a4       0x34 /home/jordan/ncs/v2.5.1/nrfxlib/crypto/nrf_cc312_platform/lib/cortex-m33/soft-float/no-interrupts/libnrf_cc312_platform_0.9.18.a(kmu_shared.c.obj)
 .ARM.attributes
                0x00000000000012d8       0x34 /home/jordan/ncs/v2.5.1/nrfxlib/crypto/nrf_cc312_platform/lib/cortex-m33/soft-float/no-interrupts/libnrf_cc312_platform_0.9.18.a(cc_util_cmac.c.obj)
 .ARM.attributes
                0x000000000000130c       0x34 /home/jordan/ncs/v2.5.1/nrfxlib/crypto/nrf_cc312_platform/lib/cortex-m33/soft-float/no-interrupts/libnrf_cc312_platform_0.9.18.a(cc_pal_buff_attr.c.obj)
 .ARM.attributes
                0x0000000000001340       0x32 /home/jordan/ncs/toolchains/7795df4459/opt/zephyr-sdk/arm-zephyr-eabi/bin/../lib/gcc/arm-zephyr-eabi/12.2.0/thumb/v8-m.main/nofp/libgcc.a(cmse.o)
 .ARM.attributes
                0x0000000000001372       0x32 /home/jordan/ncs/toolchains/7795df4459/opt/zephyr-sdk/arm-zephyr-eabi/bin/../lib/gcc/arm-zephyr-eabi/12.2.0/../../../../arm-zephyr-eabi/lib/thumb/v8-m.main/nofp/libc_nano.a(lib_a-exit.o)
 .ARM.attributes
                0x00000000000013a4       0x32 /home/jordan/ncs/toolchains/7795df4459/opt/zephyr-sdk/arm-zephyr-eabi/bin/../lib/gcc/arm-zephyr-eabi/12.2.0/../../../../arm-zephyr-eabi/lib/thumb/v8-m.main/nofp/libc_nano.a(lib_a-impure.o)
 .ARM.attributes
                0x00000000000013d6       0x32 /home/jordan/ncs/toolchains/7795df4459/opt/zephyr-sdk/arm-zephyr-eabi/bin/../lib/gcc/arm-zephyr-eabi/12.2.0/../../../../arm-zephyr-eabi/lib/thumb/v8-m.main/nofp/libc_nano.a(lib_a-init.o)
 .ARM.attributes
                0x0000000000001408       0x32 /home/jordan/ncs/toolchains/7795df4459/opt/zephyr-sdk/arm-zephyr-eabi/bin/../lib/gcc/arm-zephyr-eabi/12.2.0/../../../../arm-zephyr-eabi/lib/thumb/v8-m.main/nofp/libc_nano.a(lib_a-memmove.o)
 .ARM.attributes
                0x000000000000143a       0x32 /home/jordan/ncs/toolchains/7795df4459/opt/zephyr-sdk/arm-zephyr-eabi/bin/../lib/gcc/arm-zephyr-eabi/12.2.0/thumb/v8-m.main/nofp/crtend.o
 .ARM.attributes
                0x000000000000146c       0x22 /home/jordan/ncs/toolchains/7795df4459/opt/zephyr-sdk/arm-zephyr-eabi/bin/../lib/gcc/arm-zephyr-eabi/12.2.0/thumb/v8-m.main/nofp/crtn.o
 .ARM.attributes
                0x000000000000148e       0x32 /home/jordan/ncs/toolchains/7795df4459/opt/zephyr-sdk/arm-zephyr-eabi/bin/../lib/gcc/arm-zephyr-eabi/12.2.0/../../../../arm-zephyr-eabi/lib/thumb/v8-m.main/nofp/libnosys.a(_exit.o)

.comment        0x0000000000000000       0x20
 .comment       0x0000000000000000       0x20 secure_fw/CMakeFiles/tfm_s.dir/__/platform/ext/target/nordic_nrf/common/core/startup.o
                                         0x21 (size before relaxing)
 .comment       0x0000000000000020       0x21 secure_fw/CMakeFiles/tfm_s.dir/__/platform/ext/target/nordic_nrf/common/core/startup_nrf5340.o
 .comment       0x0000000000000020       0x21 secure_fw/CMakeFiles/tfm_s.dir/__/platform/ext/common/faults.o
 .comment       0x0000000000000020       0x21 secure_fw/CMakeFiles/tfm_s.dir/__/generated/secure_fw/partitions/crypto/auto_generated/load_info_tfm_crypto.o
 .comment       0x0000000000000020       0x21 secure_fw/CMakeFiles/tfm_s.dir/__/generated/secure_fw/partitions/platform/auto_generated/load_info_tfm_platform.o
 .comment       0x0000000000000020       0x21 secure_fw/CMakeFiles/tfm_s.dir/partitions/ns_agent_tz/load_info_ns_agent_tz.o
 .comment       0x0000000000000020       0x21 platform/libplatform_s.a(system_nrf5340_application.o)
 .comment       0x0000000000000020       0x21 secure_fw/partitions/lib/runtime/libtfm_sprt.a(crt_memset.o)
 .comment       0x0000000000000020       0x21 secure_fw/partitions/lib/runtime/libtfm_sprt.a(psa_api_ipc.o)
 .comment       0x0000000000000020       0x21 secure_fw/partitions/lib/runtime/libtfm_sprt.a(sprt_partition_metadata_indicator.o)
 .comment       0x0000000000000020       0x21 secure_fw/spm/libtfm_spm.a(utilities.o)
 .comment       0x0000000000000020       0x21 secure_fw/spm/libtfm_spm.a(main.o)
 .comment       0x0000000000000020       0x21 secure_fw/spm/libtfm_spm.a(tfm_core_svcalls_ipc.o)
 .comment       0x0000000000000020       0x21 secure_fw/spm/libtfm_spm.a(tfm_arch_v8m_main.o)
 .comment       0x0000000000000020       0x21 secure_fw/spm/libtfm_spm.a(ns_agent_tz_v80m.o)
 .comment       0x0000000000000020       0x21 secure_fw/spm/libtfm_spm.a(tfm_hal_isolation.o)
 .comment       0x0000000000000020       0x21 secure_fw/spm/libtfm_spm.a(faults.o)
 .comment       0x0000000000000020       0x21 secure_fw/spm/libtfm_spm.a(target_cfg.o)
 .comment       0x0000000000000020       0x21 secure_fw/spm/libtfm_spm.a(tfm_boot_data.o)
 .comment       0x0000000000000020       0x21 secure_fw/spm/libtfm_spm.a(tfm_arch.o)
 .comment       0x0000000000000020       0x21 secure_fw/spm/libtfm_spm.a(spm_ipc.o)
 .comment       0x0000000000000020       0x21 secure_fw/spm/libtfm_spm.a(spm_cross_call.o)
 .comment       0x0000000000000020       0x21 secure_fw/spm/libtfm_spm.a(rom_loader.o)
 .comment       0x0000000000000020       0x21 secure_fw/spm/libtfm_spm.a(psa_api.o)
 .comment       0x0000000000000020       0x21 secure_fw/spm/libtfm_spm.a(backend_ipc.o)
 .comment       0x0000000000000020       0x21 secure_fw/spm/libtfm_spm.a(tfm_pools.o)
 .comment       0x0000000000000020       0x21 secure_fw/spm/libtfm_spm.a(thread.o)
 .comment       0x0000000000000020       0x21 secure_fw/spm/libtfm_spm.a(tfm_spm_ns_ctx.o)
 .comment       0x0000000000000020       0x21 secure_fw/spm/libtfm_spm.a(tfm_hal_platform_common.o)
 .comment       0x0000000000000020       0x21 secure_fw/partitions/crypto/libtfm_psa_rot_partition_crypto.a(crypto_init.o)
 .comment       0x0000000000000020       0x21 secure_fw/partitions/crypto/libtfm_psa_rot_partition_crypto.a(crypto_alloc.o)
 .comment       0x0000000000000020       0x21 secure_fw/partitions/crypto/libtfm_psa_rot_partition_crypto.a(crypto_cipher.o)
 .comment       0x0000000000000020       0x21 secure_fw/partitions/crypto/libtfm_psa_rot_partition_crypto.a(crypto_hash.o)
 .comment       0x0000000000000020       0x21 secure_fw/partitions/crypto/libtfm_psa_rot_partition_crypto.a(crypto_mac.o)
 .comment       0x0000000000000020       0x21 secure_fw/partitions/crypto/libtfm_psa_rot_partition_crypto.a(crypto_aead.o)
 .comment       0x0000000000000020       0x21 secure_fw/partitions/crypto/libtfm_psa_rot_partition_crypto.a(crypto_asymmetric.o)
 .comment       0x0000000000000020       0x21 secure_fw/partitions/crypto/libtfm_psa_rot_partition_crypto.a(crypto_key_derivation.o)
 .comment       0x0000000000000020       0x21 secure_fw/partitions/crypto/libtfm_psa_rot_partition_crypto.a(crypto_key_management.o)
 .comment       0x0000000000000020       0x21 secure_fw/partitions/crypto/libtfm_psa_rot_partition_crypto.a(crypto_rng.o)
 .comment       0x0000000000000020       0x21 secure_fw/partitions/crypto/libtfm_psa_rot_partition_crypto.a(crypto_library.o)
 .comment       0x0000000000000020       0x21 secure_fw/partitions/crypto/libtfm_psa_rot_partition_crypto.a(intermedia_tfm_crypto.o)
 .comment       0x0000000000000020       0x21 platform/libplatform_crypto_keys.a(crypto_keys.o)
 .comment       0x0000000000000020       0x21 secure_fw/partitions/crypto/mbedcrypto/nrf_security_src/libcrypto_service_mbedcrypto.a(memory_buffer_alloc.o)
 .comment       0x0000000000000020       0x21 secure_fw/partitions/crypto/mbedcrypto/nrf_security_src/libcrypto_service_mbedcrypto.a(platform.o)
 .comment       0x0000000000000020       0x21 secure_fw/partitions/crypto/mbedcrypto/nrf_security_src/libcrypto_service_mbedcrypto.a(psa_crypto.o)
 .comment       0x0000000000000020       0x21 secure_fw/partitions/crypto/mbedcrypto/nrf_security_src/libcrypto_service_mbedcrypto.a(psa_crypto_slot_management.o)
 .comment       0x0000000000000020       0x21 secure_fw/partitions/crypto/mbedcrypto/nrf_security_src/libcrypto_service_mbedcrypto.a(psa_crypto_driver_wrappers.o)
 .comment       0x0000000000000020       0x21 secure_fw/partitions/platform/libtfm_psa_rot_partition_platform.a(platform_sp.o)
 .comment       0x0000000000000020       0x21 secure_fw/partitions/platform/libtfm_psa_rot_partition_platform.a(intermedia_tfm_platform.o)
 .comment       0x0000000000000020       0x21 platform/libplatform_s.a(mpu_armv8m_drv.o)
 .comment       0x0000000000000020       0x21 platform/libplatform_s.a(spu.o)
 .comment       0x0000000000000020       0x21 platform/libplatform_s.a(tfm_hal_platform.o)
 .comment       0x0000000000000020       0x21 platform/libplatform_s.a(dummy_otp.o)
 .comment       0x0000000000000020       0x21 platform/libplatform_s.a(dummy_provisioning.o)
 .comment       0x0000000000000020       0x21 platform/libplatform_s.a(tfm_platform_system.o)
 .comment       0x0000000000000020       0x21 platform/libplatform_s.a(tfm_hal_reset_halt.o)
 .comment       0x0000000000000020       0x21 platform/libplatform_s.a(tfm_platform_hal_ioctl.o)
 .comment       0x0000000000000020       0x21 secure_fw/partitions/lib/runtime/libtfm_sprt.a(crt_memcpy.o)
 .comment       0x0000000000000020       0x21 secure_fw/partitions/lib/runtime/libtfm_sprt.a(sfn_common_thread.o)
 .comment       0x0000000000000020       0x21 secure_fw/partitions/lib/runtime/libtfm_sprt.a(psa_interface_cross.o)
 .comment       0x0000000000000020       0x21 secure_fw/spm/libtfm_spm.a(psa_call_api.o)
 .comment       0x0000000000000020       0x21 secure_fw/spm/libtfm_spm.a(psa_version_api.o)
 .comment       0x0000000000000020       0x21 secure_fw/spm/libtfm_spm.a(psa_read_write_skip_api.o)
 .comment       0x0000000000000020       0x21 secure_fw/partitions/crypto/libtfm_psa_rot_partition_crypto.a(tfm_builtin_key_loader.o)
 .comment       0x0000000000000020       0x21 /home/jordan/ncs/v2.5.1/nrfxlib/crypto/nrf_cc312_platform/lib/cortex-m33/soft-float/no-interrupts/libnrf_cc312_platform_0.9.18.a(nrf_cc3xx_platform.c.obj)
 .comment       0x0000000000000020       0x21 /home/jordan/ncs/v2.5.1/nrfxlib/crypto/nrf_cc312_platform/lib/cortex-m33/soft-float/no-interrupts/libnrf_cc312_platform_0.9.18.a(nrf_cc3xx_platform_ctr_drbg.c.obj)
 .comment       0x0000000000000020       0x21 /home/jordan/ncs/v2.5.1/nrfxlib/crypto/nrf_cc312_platform/lib/cortex-m33/soft-float/no-interrupts/libnrf_cc312_platform_0.9.18.a(mbedtls_common.c.obj)
 .comment       0x0000000000000020       0x21 /home/jordan/ncs/v2.5.1/nrfxlib/crypto/nrf_cc312_platform/lib/cortex-m33/soft-float/no-interrupts/libnrf_cc312_platform_0.9.18.a(ctr_drbg.c.obj)
 .comment       0x0000000000000020       0x21 /home/jordan/ncs/v2.5.1/nrfxlib/crypto/nrf_cc312_platform/lib/cortex-m33/soft-float/no-interrupts/libnrf_cc312_platform_0.9.18.a(entropy.c.obj)
 .comment       0x0000000000000020       0x21 /home/jordan/ncs/v2.5.1/nrfxlib/crypto/nrf_cc312_platform/lib/cortex-m33/soft-float/no-interrupts/libnrf_cc312_platform_0.9.18.a(cc_lib.c.obj)
 .comment       0x0000000000000020       0x21 /home/jordan/ncs/v2.5.1/nrfxlib/crypto/nrf_cc312_platform/lib/cortex-m33/soft-float/no-interrupts/libnrf_cc312_platform_0.9.18.a(cc_hal.c.obj)
 .comment       0x0000000000000020       0x21 /home/jordan/ncs/v2.5.1/nrfxlib/crypto/nrf_cc312_platform/lib/cortex-m33/soft-float/no-interrupts/libnrf_cc312_platform_0.9.18.a(cc_pal.c.obj)
 .comment       0x0000000000000020       0x21 /home/jordan/ncs/v2.5.1/nrfxlib/crypto/nrf_cc312_platform/lib/cortex-m33/soft-float/no-interrupts/libnrf_cc312_platform_0.9.18.a(cc_pal_dma.c.obj)
 .comment       0x0000000000000020       0x21 /home/jordan/ncs/v2.5.1/nrfxlib/crypto/nrf_cc312_platform/lib/cortex-m33/soft-float/no-interrupts/libnrf_cc312_platform_0.9.18.a(cc_pal_interrupt_ctrl.c.obj)
 .comment       0x0000000000000020       0x21 /home/jordan/ncs/v2.5.1/nrfxlib/crypto/nrf_cc312_platform/lib/cortex-m33/soft-float/no-interrupts/libnrf_cc312_platform_0.9.18.a(cc_pal_mem.c.obj)
 .comment       0x0000000000000020       0x21 /home/jordan/ncs/v2.5.1/nrfxlib/crypto/nrf_cc312_platform/lib/cortex-m33/soft-float/no-interrupts/libnrf_cc312_platform_0.9.18.a(cc_pal_mutex.c.obj)
 .comment       0x0000000000000020       0x21 /home/jordan/ncs/v2.5.1/nrfxlib/crypto/nrf_cc312_platform/lib/cortex-m33/soft-float/no-interrupts/libnrf_cc312_platform_0.9.18.a(cc_pal_pm.c.obj)
 .comment       0x0000000000000020       0x21 /home/jordan/ncs/v2.5.1/nrfxlib/crypto/nrf_cc312_platform/lib/cortex-m33/soft-float/no-interrupts/libnrf_cc312_platform_0.9.18.a(threading_alt.c.obj)
 .comment       0x0000000000000020       0x21 /home/jordan/ncs/v2.5.1/nrfxlib/crypto/nrf_cc312_platform/lib/cortex-m33/soft-float/no-interrupts/libnrf_cc312_platform_0.9.18.a(nrf_cc3xx_platform_abort.c.obj)
 .comment       0x0000000000000020       0x21 /home/jordan/ncs/v2.5.1/nrfxlib/crypto/nrf_cc312_platform/lib/cortex-m33/soft-float/no-interrupts/libnrf_cc312_platform_0.9.18.a(nrf_cc3xx_platform_mutex.c.obj)
 .comment       0x0000000000000020       0x21 /home/jordan/ncs/v2.5.1/nrfxlib/crypto/nrf_cc312_platform/lib/cortex-m33/soft-float/no-interrupts/libnrf_cc312_platform_0.9.18.a(llf_rnd_trng90b.c.obj)
 .comment       0x0000000000000020       0x21 /home/jordan/ncs/v2.5.1/nrfxlib/crypto/nrf_cc312_platform/lib/cortex-m33/soft-float/no-interrupts/libnrf_cc312_platform_0.9.18.a(trng_api.c.obj)
 .comment       0x0000000000000020       0x21 /home/jordan/ncs/v2.5.1/nrfxlib/crypto/nrf_cc312_platform/lib/cortex-m33/soft-float/no-interrupts/libnrf_cc312_platform_0.9.18.a(aes_alt.c.obj)
 .comment       0x0000000000000020       0x21 /home/jordan/ncs/v2.5.1/nrfxlib/crypto/nrf_cc312_platform/lib/cortex-m33/soft-float/no-interrupts/libnrf_cc312_platform_0.9.18.a(sha256_alt.c.obj)
 .comment       0x0000000000000020       0x21 /home/jordan/ncs/v2.5.1/nrfxlib/crypto/nrf_cc312_platform/lib/cortex-m33/soft-float/no-interrupts/libnrf_cc312_platform_0.9.18.a(mbedtls_hash_common.c.obj)
 .comment       0x0000000000000020       0x21 /home/jordan/ncs/v2.5.1/nrfxlib/crypto/nrf_cc312_platform/lib/cortex-m33/soft-float/no-interrupts/libnrf_cc312_platform_0.9.18.a(sha256.c.obj)
 .comment       0x0000000000000020       0x21 /home/jordan/ncs/v2.5.1/nrfxlib/crypto/nrf_cc312_platform/lib/cortex-m33/soft-float/no-interrupts/libnrf_cc312_platform_0.9.18.a(cc_rng_plat.c.obj)
 .comment       0x0000000000000020       0x21 /home/jordan/ncs/v2.5.1/nrfxlib/crypto/nrf_cc312_platform/lib/cortex-m33/soft-float/no-interrupts/libnrf_cc312_platform_0.9.18.a(cc_pal_trng.c.obj)
 .comment       0x0000000000000020       0x21 /home/jordan/ncs/v2.5.1/nrfxlib/crypto/nrf_cc312_platform/lib/cortex-m33/soft-float/no-interrupts/libnrf_cc312_platform_0.9.18.a(llf_rnd.c.obj)
 .comment       0x0000000000000020       0x21 /home/jordan/ncs/v2.5.1/nrfxlib/crypto/nrf_cc312_platform/lib/cortex-m33/soft-float/no-interrupts/libnrf_cc312_platform_0.9.18.a(driver_common.c.obj)
 .comment       0x0000000000000020       0x21 /home/jordan/ncs/v2.5.1/nrfxlib/crypto/nrf_cc312_platform/lib/cortex-m33/soft-float/no-interrupts/libnrf_cc312_platform_0.9.18.a(hash_driver.c.obj)
 .comment       0x0000000000000020       0x21 /home/jordan/ncs/v2.5.1/nrfxlib/crypto/nrf_cc312_platform/lib/cortex-m33/soft-float/no-interrupts/libnrf_cc312_platform_0.9.18.a(aes_driver.c.obj)
 .comment       0x0000000000000020       0x21 /home/jordan/ncs/v2.5.1/nrfxlib/crypto/nrf_cc312_platform/lib/cortex-m33/soft-float/no-interrupts/libnrf_cc312_platform_0.9.18.a(kmu_shared.c.obj)
 .comment       0x0000000000000020       0x21 /home/jordan/ncs/v2.5.1/nrfxlib/crypto/nrf_cc312_platform/lib/cortex-m33/soft-float/no-interrupts/libnrf_cc312_platform_0.9.18.a(cc_util_cmac.c.obj)
 .comment       0x0000000000000020       0x21 /home/jordan/ncs/v2.5.1/nrfxlib/crypto/nrf_cc312_platform/lib/cortex-m33/soft-float/no-interrupts/libnrf_cc312_platform_0.9.18.a(cc_pal_buff_attr.c.obj)

.debug_info     0x0000000000000000    0x293f4
 .debug_info    0x0000000000000000      0x26f secure_fw/CMakeFiles/tfm_s.dir/partitions/ns_agent_tz/psa_api_veneers_v80m.o
 .debug_info    0x000000000000026f      0x77d secure_fw/CMakeFiles/tfm_s.dir/__/platform/ext/target/nordic_nrf/common/core/startup.o
 .debug_info    0x00000000000009ec      0x135 secure_fw/CMakeFiles/tfm_s.dir/__/platform/ext/target/nordic_nrf/common/core/startup_nrf5340.o
 .debug_info    0x0000000000000b21      0x117 secure_fw/CMakeFiles/tfm_s.dir/__/platform/ext/common/faults.o
 .debug_info    0x0000000000000c38      0x637 secure_fw/CMakeFiles/tfm_s.dir/__/generated/secure_fw/partitions/crypto/auto_generated/load_info_tfm_crypto.o
 .debug_info    0x000000000000126f      0x61a secure_fw/CMakeFiles/tfm_s.dir/__/generated/secure_fw/partitions/platform/auto_generated/load_info_tfm_platform.o
 .debug_info    0x0000000000001889      0x5b5 secure_fw/CMakeFiles/tfm_s.dir/partitions/ns_agent_tz/load_info_ns_agent_tz.o
 .debug_info    0x0000000000001e3e     0x1ac0 platform/libplatform_s.a(system_nrf5340_application.o)
 .debug_info    0x00000000000038fe      0x173 secure_fw/partitions/lib/runtime/libtfm_sprt.a(crt_memset.o)
 .debug_info    0x0000000000003a71      0x780 secure_fw/partitions/lib/runtime/libtfm_sprt.a(psa_api_ipc.o)
 .debug_info    0x00000000000041f1       0x8e secure_fw/partitions/lib/runtime/libtfm_sprt.a(sprt_partition_metadata_indicator.o)
 .debug_info    0x000000000000427f       0x97 secure_fw/spm/libtfm_spm.a(utilities.o)
 .debug_info    0x0000000000004316      0x3bb secure_fw/spm/libtfm_spm.a(main.o)
 .debug_info    0x00000000000046d1      0x2ac secure_fw/spm/libtfm_spm.a(tfm_core_svcalls_ipc.o)
 .debug_info    0x000000000000497d      0x9d0 secure_fw/spm/libtfm_spm.a(tfm_arch_v8m_main.o)
 .debug_info    0x000000000000534d       0xac secure_fw/spm/libtfm_spm.a(ns_agent_tz_v80m.o)
 .debug_info    0x00000000000053f9      0xff2 secure_fw/spm/libtfm_spm.a(tfm_hal_isolation.o)
 .debug_info    0x00000000000063eb      0x8e0 secure_fw/spm/libtfm_spm.a(faults.o)
 .debug_info    0x0000000000006ccb     0x6130 secure_fw/spm/libtfm_spm.a(target_cfg.o)
 .debug_info    0x000000000000cdfb      0x806 secure_fw/spm/libtfm_spm.a(tfm_boot_data.o)
 .debug_info    0x000000000000d601      0x51f secure_fw/spm/libtfm_spm.a(tfm_arch.o)
 .debug_info    0x000000000000db20      0xff3 secure_fw/spm/libtfm_spm.a(spm_ipc.o)
 .debug_info    0x000000000000eb13      0x8b0 secure_fw/spm/libtfm_spm.a(spm_cross_call.o)
 .debug_info    0x000000000000f3c3      0x8bf secure_fw/spm/libtfm_spm.a(rom_loader.o)
 .debug_info    0x000000000000fc82      0xa2a secure_fw/spm/libtfm_spm.a(psa_api.o)
 .debug_info    0x00000000000106ac     0x10d3 secure_fw/spm/libtfm_spm.a(backend_ipc.o)
 .debug_info    0x000000000001177f      0x32e secure_fw/spm/libtfm_spm.a(tfm_pools.o)
 .debug_info    0x0000000000011aad      0x450 secure_fw/spm/libtfm_spm.a(thread.o)
 .debug_info    0x0000000000011efd      0x4b1 secure_fw/spm/libtfm_spm.a(tfm_spm_ns_ctx.o)
 .debug_info    0x00000000000123ae      0x26e secure_fw/spm/libtfm_spm.a(tfm_hal_platform_common.o)
 .debug_info    0x000000000001261c      0xf44 secure_fw/partitions/crypto/libtfm_psa_rot_partition_crypto.a(crypto_init.o)
 .debug_info    0x0000000000013560      0xa24 secure_fw/partitions/crypto/libtfm_psa_rot_partition_crypto.a(crypto_alloc.o)
 .debug_info    0x0000000000013f84      0x1b7 secure_fw/partitions/crypto/libtfm_psa_rot_partition_crypto.a(crypto_cipher.o)
 .debug_info    0x000000000001413b      0x156 secure_fw/partitions/crypto/libtfm_psa_rot_partition_crypto.a(crypto_hash.o)
 .debug_info    0x0000000000014291      0x1b7 secure_fw/partitions/crypto/libtfm_psa_rot_partition_crypto.a(crypto_mac.o)
 .debug_info    0x0000000000014448      0x1b7 secure_fw/partitions/crypto/libtfm_psa_rot_partition_crypto.a(crypto_aead.o)
 .debug_info    0x00000000000145ff      0x202 secure_fw/partitions/crypto/libtfm_psa_rot_partition_crypto.a(crypto_asymmetric.o)
 .debug_info    0x0000000000014801      0x1be secure_fw/partitions/crypto/libtfm_psa_rot_partition_crypto.a(crypto_key_derivation.o)
 .debug_info    0x00000000000149bf      0x1b7 secure_fw/partitions/crypto/libtfm_psa_rot_partition_crypto.a(crypto_key_management.o)
 .debug_info    0x0000000000014b76      0x1c7 secure_fw/partitions/crypto/libtfm_psa_rot_partition_crypto.a(crypto_rng.o)
 .debug_info    0x0000000000014d3d      0x7c0 secure_fw/partitions/crypto/libtfm_psa_rot_partition_crypto.a(crypto_library.o)
 .debug_info    0x00000000000154fd       0xa0 secure_fw/partitions/crypto/libtfm_psa_rot_partition_crypto.a(intermedia_tfm_crypto.o)
 .debug_info    0x000000000001559d      0x324 platform/libplatform_crypto_keys.a(crypto_keys.o)
 .debug_info    0x00000000000158c1      0x5ff secure_fw/partitions/crypto/mbedcrypto/nrf_security_src/libcrypto_service_mbedcrypto.a(memory_buffer_alloc.o)
 .debug_info    0x0000000000015ec0      0x2fa secure_fw/partitions/crypto/mbedcrypto/nrf_security_src/libcrypto_service_mbedcrypto.a(platform.o)
 .debug_info    0x00000000000161ba     0x8200 secure_fw/partitions/crypto/mbedcrypto/nrf_security_src/libcrypto_service_mbedcrypto.a(psa_crypto.o)
 .debug_info    0x000000000001e3ba     0x10cc secure_fw/partitions/crypto/mbedcrypto/nrf_security_src/libcrypto_service_mbedcrypto.a(psa_crypto_slot_management.o)
 .debug_info    0x000000000001f486     0x2b7f secure_fw/partitions/crypto/mbedcrypto/nrf_security_src/libcrypto_service_mbedcrypto.a(psa_crypto_driver_wrappers.o)
 .debug_info    0x0000000000022005      0x579 secure_fw/partitions/platform/libtfm_psa_rot_partition_platform.a(platform_sp.o)
 .debug_info    0x000000000002257e       0xa0 secure_fw/partitions/platform/libtfm_psa_rot_partition_platform.a(intermedia_tfm_platform.o)
 .debug_info    0x000000000002261e      0x5ad platform/libplatform_s.a(mpu_armv8m_drv.o)
 .debug_info    0x0000000000022bcb     0x1054 platform/libplatform_s.a(spu.o)
 .debug_info    0x0000000000023c1f      0x533 platform/libplatform_s.a(tfm_hal_platform.o)
 .debug_info    0x0000000000024152      0x1ed platform/libplatform_s.a(dummy_otp.o)
 .debug_info    0x000000000002433f       0xef platform/libplatform_s.a(dummy_provisioning.o)
 .debug_info    0x000000000002442e      0x62b platform/libplatform_s.a(tfm_platform_system.o)
 .debug_info    0x0000000000024a59      0x49f platform/libplatform_s.a(tfm_hal_reset_halt.o)
 .debug_info    0x0000000000024ef8      0x836 platform/libplatform_s.a(tfm_platform_hal_ioctl.o)
 .debug_info    0x000000000002572e      0x17e secure_fw/partitions/lib/runtime/libtfm_sprt.a(crt_memcpy.o)
 .debug_info    0x00000000000258ac      0x5c6 secure_fw/partitions/lib/runtime/libtfm_sprt.a(sfn_common_thread.o)
 .debug_info    0x0000000000025e72      0x603 secure_fw/partitions/lib/runtime/libtfm_sprt.a(psa_interface_cross.o)
 .debug_info    0x0000000000026475      0xb06 secure_fw/spm/libtfm_spm.a(psa_call_api.o)
 .debug_info    0x0000000000026f7b      0x62e secure_fw/spm/libtfm_spm.a(psa_version_api.o)
 .debug_info    0x00000000000275a9      0x885 secure_fw/spm/libtfm_spm.a(psa_read_write_skip_api.o)
 .debug_info    0x0000000000027e2e     0x15c6 secure_fw/partitions/crypto/libtfm_psa_rot_partition_crypto.a(tfm_builtin_key_loader.o)

.debug_abbrev   0x0000000000000000     0x7e29
 .debug_abbrev  0x0000000000000000      0x153 secure_fw/CMakeFiles/tfm_s.dir/partitions/ns_agent_tz/psa_api_veneers_v80m.o
 .debug_abbrev  0x0000000000000153      0x271 secure_fw/CMakeFiles/tfm_s.dir/__/platform/ext/target/nordic_nrf/common/core/startup.o
 .debug_abbrev  0x00000000000003c4       0xd1 secure_fw/CMakeFiles/tfm_s.dir/__/platform/ext/target/nordic_nrf/common/core/startup_nrf5340.o
 .debug_abbrev  0x0000000000000495       0x99 secure_fw/CMakeFiles/tfm_s.dir/__/platform/ext/common/faults.o
 .debug_abbrev  0x000000000000052e      0x140 secure_fw/CMakeFiles/tfm_s.dir/__/generated/secure_fw/partitions/crypto/auto_generated/load_info_tfm_crypto.o
 .debug_abbrev  0x000000000000066e      0x140 secure_fw/CMakeFiles/tfm_s.dir/__/generated/secure_fw/partitions/platform/auto_generated/load_info_tfm_platform.o
 .debug_abbrev  0x00000000000007ae      0x11b secure_fw/CMakeFiles/tfm_s.dir/partitions/ns_agent_tz/load_info_ns_agent_tz.o
 .debug_abbrev  0x00000000000008c9      0x28d platform/libplatform_s.a(system_nrf5340_application.o)
 .debug_abbrev  0x0000000000000b56       0xc0 secure_fw/partitions/lib/runtime/libtfm_sprt.a(crt_memset.o)
 .debug_abbrev  0x0000000000000c16      0x189 secure_fw/partitions/lib/runtime/libtfm_sprt.a(psa_api_ipc.o)
 .debug_abbrev  0x0000000000000d9f       0x48 secure_fw/partitions/lib/runtime/libtfm_sprt.a(sprt_partition_metadata_indicator.o)
 .debug_abbrev  0x0000000000000de7       0x65 secure_fw/spm/libtfm_spm.a(utilities.o)
 .debug_abbrev  0x0000000000000e4c      0x209 secure_fw/spm/libtfm_spm.a(main.o)
 .debug_abbrev  0x0000000000001055      0x1bd secure_fw/spm/libtfm_spm.a(tfm_core_svcalls_ipc.o)
 .debug_abbrev  0x0000000000001212      0x1fb secure_fw/spm/libtfm_spm.a(tfm_arch_v8m_main.o)
 .debug_abbrev  0x000000000000140d       0x64 secure_fw/spm/libtfm_spm.a(ns_agent_tz_v80m.o)
 .debug_abbrev  0x0000000000001471      0x4f8 secure_fw/spm/libtfm_spm.a(tfm_hal_isolation.o)
 .debug_abbrev  0x0000000000001969      0x1b2 secure_fw/spm/libtfm_spm.a(faults.o)
 .debug_abbrev  0x0000000000001b1b      0x3f0 secure_fw/spm/libtfm_spm.a(target_cfg.o)
 .debug_abbrev  0x0000000000001f0b      0x267 secure_fw/spm/libtfm_spm.a(tfm_boot_data.o)
 .debug_abbrev  0x0000000000002172      0x275 secure_fw/spm/libtfm_spm.a(tfm_arch.o)
 .debug_abbrev  0x00000000000023e7      0x3c7 secure_fw/spm/libtfm_spm.a(spm_ipc.o)
 .debug_abbrev  0x00000000000027ae      0x2f5 secure_fw/spm/libtfm_spm.a(spm_cross_call.o)
 .debug_abbrev  0x0000000000002aa3      0x1f4 secure_fw/spm/libtfm_spm.a(rom_loader.o)
 .debug_abbrev  0x0000000000002c97      0x308 secure_fw/spm/libtfm_spm.a(psa_api.o)
 .debug_abbrev  0x0000000000002f9f      0x42e secure_fw/spm/libtfm_spm.a(backend_ipc.o)
 .debug_abbrev  0x00000000000033cd      0x17f secure_fw/spm/libtfm_spm.a(tfm_pools.o)
 .debug_abbrev  0x000000000000354c      0x269 secure_fw/spm/libtfm_spm.a(thread.o)
 .debug_abbrev  0x00000000000037b5      0x146 secure_fw/spm/libtfm_spm.a(tfm_spm_ns_ctx.o)
 .debug_abbrev  0x00000000000038fb      0x143 secure_fw/spm/libtfm_spm.a(tfm_hal_platform_common.o)
 .debug_abbrev  0x0000000000003a3e      0x37b secure_fw/partitions/crypto/libtfm_psa_rot_partition_crypto.a(crypto_init.o)
 .debug_abbrev  0x0000000000003db9      0x202 secure_fw/partitions/crypto/libtfm_psa_rot_partition_crypto.a(crypto_alloc.o)
 .debug_abbrev  0x0000000000003fbb       0xd3 secure_fw/partitions/crypto/libtfm_psa_rot_partition_crypto.a(crypto_cipher.o)
 .debug_abbrev  0x000000000000408e       0xc4 secure_fw/partitions/crypto/libtfm_psa_rot_partition_crypto.a(crypto_hash.o)
 .debug_abbrev  0x0000000000004152       0xd3 secure_fw/partitions/crypto/libtfm_psa_rot_partition_crypto.a(crypto_mac.o)
 .debug_abbrev  0x0000000000004225       0xd3 secure_fw/partitions/crypto/libtfm_psa_rot_partition_crypto.a(crypto_aead.o)
 .debug_abbrev  0x00000000000042f8       0xf0 secure_fw/partitions/crypto/libtfm_psa_rot_partition_crypto.a(crypto_asymmetric.o)
 .debug_abbrev  0x00000000000043e8       0xd3 secure_fw/partitions/crypto/libtfm_psa_rot_partition_crypto.a(crypto_key_derivation.o)
 .debug_abbrev  0x00000000000044bb       0xd3 secure_fw/partitions/crypto/libtfm_psa_rot_partition_crypto.a(crypto_key_management.o)
 .debug_abbrev  0x000000000000458e       0xf3 secure_fw/partitions/crypto/libtfm_psa_rot_partition_crypto.a(crypto_rng.o)
 .debug_abbrev  0x0000000000004681      0x293 secure_fw/partitions/crypto/libtfm_psa_rot_partition_crypto.a(crypto_library.o)
 .debug_abbrev  0x0000000000004914       0x5d secure_fw/partitions/crypto/libtfm_psa_rot_partition_crypto.a(intermedia_tfm_crypto.o)
 .debug_abbrev  0x0000000000004971      0x137 platform/libplatform_crypto_keys.a(crypto_keys.o)
 .debug_abbrev  0x0000000000004aa8      0x2e3 secure_fw/partitions/crypto/mbedcrypto/nrf_security_src/libcrypto_service_mbedcrypto.a(memory_buffer_alloc.o)
 .debug_abbrev  0x0000000000004d8b      0x216 secure_fw/partitions/crypto/mbedcrypto/nrf_security_src/libcrypto_service_mbedcrypto.a(platform.o)
 .debug_abbrev  0x0000000000004fa1      0x601 secure_fw/partitions/crypto/mbedcrypto/nrf_security_src/libcrypto_service_mbedcrypto.a(psa_crypto.o)
 .debug_abbrev  0x00000000000055a2      0x4b4 secure_fw/partitions/crypto/mbedcrypto/nrf_security_src/libcrypto_service_mbedcrypto.a(psa_crypto_slot_management.o)
 .debug_abbrev  0x0000000000005a56      0x3bc secure_fw/partitions/crypto/mbedcrypto/nrf_security_src/libcrypto_service_mbedcrypto.a(psa_crypto_driver_wrappers.o)
 .debug_abbrev  0x0000000000005e12      0x24d secure_fw/partitions/platform/libtfm_psa_rot_partition_platform.a(platform_sp.o)
 .debug_abbrev  0x000000000000605f       0x5d secure_fw/partitions/platform/libtfm_psa_rot_partition_platform.a(intermedia_tfm_platform.o)
 .debug_abbrev  0x00000000000060bc      0x1e5 platform/libplatform_s.a(mpu_armv8m_drv.o)
 .debug_abbrev  0x00000000000062a1      0x2dd platform/libplatform_s.a(spu.o)
 .debug_abbrev  0x000000000000657e      0x1ba platform/libplatform_s.a(tfm_hal_platform.o)
 .debug_abbrev  0x0000000000006738      0x147 platform/libplatform_s.a(dummy_otp.o)
 .debug_abbrev  0x000000000000687f       0x90 platform/libplatform_s.a(dummy_provisioning.o)
 .debug_abbrev  0x000000000000690f      0x1e4 platform/libplatform_s.a(tfm_platform_system.o)
 .debug_abbrev  0x0000000000006af3      0x12d platform/libplatform_s.a(tfm_hal_reset_halt.o)
 .debug_abbrev  0x0000000000006c20      0x334 platform/libplatform_s.a(tfm_platform_hal_ioctl.o)
 .debug_abbrev  0x0000000000006f54       0xc5 secure_fw/partitions/lib/runtime/libtfm_sprt.a(crt_memcpy.o)
 .debug_abbrev  0x0000000000007019      0x1ca secure_fw/partitions/lib/runtime/libtfm_sprt.a(sfn_common_thread.o)
 .debug_abbrev  0x00000000000071e3      0x1ac secure_fw/partitions/lib/runtime/libtfm_sprt.a(psa_interface_cross.o)
 .debug_abbrev  0x000000000000738f      0x29e secure_fw/spm/libtfm_spm.a(psa_call_api.o)
 .debug_abbrev  0x000000000000762d      0x190 secure_fw/spm/libtfm_spm.a(psa_version_api.o)
 .debug_abbrev  0x00000000000077bd      0x1fe secure_fw/spm/libtfm_spm.a(psa_read_write_skip_api.o)
 .debug_abbrev  0x00000000000079bb      0x46e secure_fw/partitions/crypto/libtfm_psa_rot_partition_crypto.a(tfm_builtin_key_loader.o)

.debug_loc      0x0000000000000000    0x10ca0
 .debug_loc     0x0000000000000000       0x6f secure_fw/CMakeFiles/tfm_s.dir/partitions/ns_agent_tz/psa_api_veneers_v80m.o
 .debug_loc     0x000000000000006f       0x6e secure_fw/CMakeFiles/tfm_s.dir/__/platform/ext/target/nordic_nrf/common/core/startup.o
 .debug_loc     0x00000000000000dd      0x182 platform/libplatform_s.a(system_nrf5340_application.o)
 .debug_loc     0x000000000000025f      0x151 secure_fw/partitions/lib/runtime/libtfm_sprt.a(crt_memset.o)
 .debug_loc     0x00000000000003b0      0x32e secure_fw/partitions/lib/runtime/libtfm_sprt.a(psa_api_ipc.o)
 .debug_loc     0x00000000000006de       0x97 secure_fw/spm/libtfm_spm.a(main.o)
 .debug_loc     0x0000000000000775      0x154 secure_fw/spm/libtfm_spm.a(tfm_core_svcalls_ipc.o)
 .debug_loc     0x00000000000008c9      0x24e secure_fw/spm/libtfm_spm.a(tfm_arch_v8m_main.o)
 .debug_loc     0x0000000000000b17      0x8c8 secure_fw/spm/libtfm_spm.a(tfm_hal_isolation.o)
 .debug_loc     0x00000000000013df       0x16 secure_fw/spm/libtfm_spm.a(faults.o)
 .debug_loc     0x00000000000013f5      0x32a secure_fw/spm/libtfm_spm.a(target_cfg.o)
 .debug_loc     0x000000000000171f      0x142 secure_fw/spm/libtfm_spm.a(tfm_boot_data.o)
 .debug_loc     0x0000000000001861      0x265 secure_fw/spm/libtfm_spm.a(tfm_arch.o)
 .debug_loc     0x0000000000001ac6      0x794 secure_fw/spm/libtfm_spm.a(spm_ipc.o)
 .debug_loc     0x000000000000225a      0x25d secure_fw/spm/libtfm_spm.a(spm_cross_call.o)
 .debug_loc     0x00000000000024b7      0x20e secure_fw/spm/libtfm_spm.a(rom_loader.o)
 .debug_loc     0x00000000000026c5      0x408 secure_fw/spm/libtfm_spm.a(psa_api.o)
 .debug_loc     0x0000000000002acd      0x760 secure_fw/spm/libtfm_spm.a(backend_ipc.o)
 .debug_loc     0x000000000000322d      0x2d9 secure_fw/spm/libtfm_spm.a(tfm_pools.o)
 .debug_loc     0x0000000000003506      0x22c secure_fw/spm/libtfm_spm.a(thread.o)
 .debug_loc     0x0000000000003732       0x15 secure_fw/spm/libtfm_spm.a(tfm_spm_ns_ctx.o)
 .debug_loc     0x0000000000003747       0x66 secure_fw/spm/libtfm_spm.a(tfm_hal_platform_common.o)
 .debug_loc     0x00000000000037ad      0xb05 secure_fw/partitions/crypto/libtfm_psa_rot_partition_crypto.a(crypto_init.o)
 .debug_loc     0x00000000000042b2      0x2a6 secure_fw/partitions/crypto/libtfm_psa_rot_partition_crypto.a(crypto_alloc.o)
 .debug_loc     0x0000000000004558       0x25 secure_fw/partitions/crypto/libtfm_psa_rot_partition_crypto.a(crypto_cipher.o)
 .debug_loc     0x000000000000457d       0x25 secure_fw/partitions/crypto/libtfm_psa_rot_partition_crypto.a(crypto_hash.o)
 .debug_loc     0x00000000000045a2       0x25 secure_fw/partitions/crypto/libtfm_psa_rot_partition_crypto.a(crypto_mac.o)
 .debug_loc     0x00000000000045c7       0x25 secure_fw/partitions/crypto/libtfm_psa_rot_partition_crypto.a(crypto_aead.o)
 .debug_loc     0x00000000000045ec       0x25 secure_fw/partitions/crypto/libtfm_psa_rot_partition_crypto.a(crypto_asymmetric.o)
 .debug_loc     0x0000000000004611       0x25 secure_fw/partitions/crypto/libtfm_psa_rot_partition_crypto.a(crypto_key_derivation.o)
 .debug_loc     0x0000000000004636       0x25 secure_fw/partitions/crypto/libtfm_psa_rot_partition_crypto.a(crypto_key_management.o)
 .debug_loc     0x000000000000465b       0x92 secure_fw/partitions/crypto/libtfm_psa_rot_partition_crypto.a(crypto_rng.o)
 .debug_loc     0x00000000000046ed      0x27d secure_fw/partitions/crypto/libtfm_psa_rot_partition_crypto.a(crypto_library.o)
 .debug_loc     0x000000000000496a       0x25 platform/libplatform_crypto_keys.a(crypto_keys.o)
 .debug_loc     0x000000000000498f      0x46a secure_fw/partitions/crypto/mbedcrypto/nrf_security_src/libcrypto_service_mbedcrypto.a(memory_buffer_alloc.o)
 .debug_loc     0x0000000000004df9      0x105 secure_fw/partitions/crypto/mbedcrypto/nrf_security_src/libcrypto_service_mbedcrypto.a(platform.o)
 .debug_loc     0x0000000000004efe     0x711c secure_fw/partitions/crypto/mbedcrypto/nrf_security_src/libcrypto_service_mbedcrypto.a(psa_crypto.o)
 .debug_loc     0x000000000000c01a      0xac6 secure_fw/partitions/crypto/mbedcrypto/nrf_security_src/libcrypto_service_mbedcrypto.a(psa_crypto_slot_management.o)
 .debug_loc     0x000000000000cae0     0x1494 secure_fw/partitions/crypto/mbedcrypto/nrf_security_src/libcrypto_service_mbedcrypto.a(psa_crypto_driver_wrappers.o)
 .debug_loc     0x000000000000df74      0x2e8 secure_fw/partitions/platform/libtfm_psa_rot_partition_platform.a(platform_sp.o)
 .debug_loc     0x000000000000e25c      0x2d8 platform/libplatform_s.a(mpu_armv8m_drv.o)
 .debug_loc     0x000000000000e534      0x98a platform/libplatform_s.a(spu.o)
 .debug_loc     0x000000000000eebe       0x87 platform/libplatform_s.a(tfm_hal_platform.o)
 .debug_loc     0x000000000000ef45       0x4a platform/libplatform_s.a(dummy_otp.o)
 .debug_loc     0x000000000000ef8f       0xfd platform/libplatform_s.a(tfm_platform_system.o)
 .debug_loc     0x000000000000f08c      0x3f6 platform/libplatform_s.a(tfm_platform_hal_ioctl.o)
 .debug_loc     0x000000000000f482      0x23d secure_fw/partitions/lib/runtime/libtfm_sprt.a(crt_memcpy.o)
 .debug_loc     0x000000000000f6bf       0xd5 secure_fw/partitions/lib/runtime/libtfm_sprt.a(sfn_common_thread.o)
 .debug_loc     0x000000000000f794      0x103 secure_fw/partitions/lib/runtime/libtfm_sprt.a(psa_interface_cross.o)
 .debug_loc     0x000000000000f897      0x573 secure_fw/spm/libtfm_spm.a(psa_call_api.o)
 .debug_loc     0x000000000000fe0a       0x73 secure_fw/spm/libtfm_spm.a(psa_version_api.o)
 .debug_loc     0x000000000000fe7d      0x305 secure_fw/spm/libtfm_spm.a(psa_read_write_skip_api.o)
 .debug_loc     0x0000000000010182      0xb1e secure_fw/partitions/crypto/libtfm_psa_rot_partition_crypto.a(tfm_builtin_key_loader.o)

.debug_aranges  0x0000000000000000     0x1320
 .debug_aranges
                0x0000000000000000       0x48 secure_fw/CMakeFiles/tfm_s.dir/partitions/ns_agent_tz/psa_api_veneers_v80m.o
 .debug_aranges
                0x0000000000000048       0x28 secure_fw/CMakeFiles/tfm_s.dir/__/platform/ext/target/nordic_nrf/common/core/startup.o
 .debug_aranges
                0x0000000000000070       0x20 secure_fw/CMakeFiles/tfm_s.dir/__/platform/ext/target/nordic_nrf/common/core/startup_nrf5340.o
 .debug_aranges
                0x0000000000000090       0x68 secure_fw/CMakeFiles/tfm_s.dir/__/platform/ext/common/faults.o
 .debug_aranges
                0x00000000000000f8       0x18 secure_fw/CMakeFiles/tfm_s.dir/__/generated/secure_fw/partitions/crypto/auto_generated/load_info_tfm_crypto.o
 .debug_aranges
                0x0000000000000110       0x18 secure_fw/CMakeFiles/tfm_s.dir/__/generated/secure_fw/partitions/platform/auto_generated/load_info_tfm_platform.o
 .debug_aranges
                0x0000000000000128       0x18 secure_fw/CMakeFiles/tfm_s.dir/partitions/ns_agent_tz/load_info_ns_agent_tz.o
 .debug_aranges
                0x0000000000000140       0x40 platform/libplatform_s.a(system_nrf5340_application.o)
 .debug_aranges
                0x0000000000000180       0x20 secure_fw/partitions/lib/runtime/libtfm_sprt.a(crt_memset.o)
 .debug_aranges
                0x00000000000001a0       0x70 secure_fw/partitions/lib/runtime/libtfm_sprt.a(psa_api_ipc.o)
 .debug_aranges
                0x0000000000000210       0x18 secure_fw/partitions/lib/runtime/libtfm_sprt.a(sprt_partition_metadata_indicator.o)
 .debug_aranges
                0x0000000000000228       0x20 secure_fw/spm/libtfm_spm.a(utilities.o)
 .debug_aranges
                0x0000000000000248       0x20 secure_fw/spm/libtfm_spm.a(main.o)
 .debug_aranges
                0x0000000000000268       0x28 secure_fw/spm/libtfm_spm.a(tfm_core_svcalls_ipc.o)
 .debug_aranges
                0x0000000000000290       0x40 secure_fw/spm/libtfm_spm.a(tfm_arch_v8m_main.o)
 .debug_aranges
                0x00000000000002d0       0x20 secure_fw/spm/libtfm_spm.a(ns_agent_tz_v80m.o)
 .debug_aranges
                0x00000000000002f0       0x48 secure_fw/spm/libtfm_spm.a(tfm_hal_isolation.o)
 .debug_aranges
                0x0000000000000338       0x28 secure_fw/spm/libtfm_spm.a(faults.o)
 .debug_aranges
                0x0000000000000360       0x70 secure_fw/spm/libtfm_spm.a(target_cfg.o)
 .debug_aranges
                0x00000000000003d0       0x28 secure_fw/spm/libtfm_spm.a(tfm_boot_data.o)
 .debug_aranges
                0x00000000000003f8       0x40 secure_fw/spm/libtfm_spm.a(tfm_arch.o)
 .debug_aranges
                0x0000000000000438       0x98 secure_fw/spm/libtfm_spm.a(spm_ipc.o)
 .debug_aranges
                0x00000000000004d0       0x30 secure_fw/spm/libtfm_spm.a(spm_cross_call.o)
 .debug_aranges
                0x0000000000000500       0x30 secure_fw/spm/libtfm_spm.a(rom_loader.o)
 .debug_aranges
                0x0000000000000530       0x48 secure_fw/spm/libtfm_spm.a(psa_api.o)
 .debug_aranges
                0x0000000000000578       0x58 secure_fw/spm/libtfm_spm.a(backend_ipc.o)
 .debug_aranges
                0x00000000000005d0       0x38 secure_fw/spm/libtfm_spm.a(tfm_pools.o)
 .debug_aranges
                0x0000000000000608       0x40 secure_fw/spm/libtfm_spm.a(thread.o)
 .debug_aranges
                0x0000000000000648       0x28 secure_fw/spm/libtfm_spm.a(tfm_spm_ns_ctx.o)
 .debug_aranges
                0x0000000000000670       0x38 secure_fw/spm/libtfm_spm.a(tfm_hal_platform_common.o)
 .debug_aranges
                0x00000000000006a8       0x40 secure_fw/partitions/crypto/libtfm_psa_rot_partition_crypto.a(crypto_init.o)
 .debug_aranges
                0x00000000000006e8       0x38 secure_fw/partitions/crypto/libtfm_psa_rot_partition_crypto.a(crypto_alloc.o)
 .debug_aranges
                0x0000000000000720       0x20 secure_fw/partitions/crypto/libtfm_psa_rot_partition_crypto.a(crypto_cipher.o)
 .debug_aranges
                0x0000000000000740       0x20 secure_fw/partitions/crypto/libtfm_psa_rot_partition_crypto.a(crypto_hash.o)
 .debug_aranges
                0x0000000000000760       0x20 secure_fw/partitions/crypto/libtfm_psa_rot_partition_crypto.a(crypto_mac.o)
 .debug_aranges
                0x0000000000000780       0x20 secure_fw/partitions/crypto/libtfm_psa_rot_partition_crypto.a(crypto_aead.o)
 .debug_aranges
                0x00000000000007a0       0x28 secure_fw/partitions/crypto/libtfm_psa_rot_partition_crypto.a(crypto_asymmetric.o)
 .debug_aranges
                0x00000000000007c8       0x20 secure_fw/partitions/crypto/libtfm_psa_rot_partition_crypto.a(crypto_key_derivation.o)
 .debug_aranges
                0x00000000000007e8       0x20 secure_fw/partitions/crypto/libtfm_psa_rot_partition_crypto.a(crypto_key_management.o)
 .debug_aranges
                0x0000000000000808       0x20 secure_fw/partitions/crypto/libtfm_psa_rot_partition_crypto.a(crypto_rng.o)
 .debug_aranges
                0x0000000000000828       0x48 secure_fw/partitions/crypto/libtfm_psa_rot_partition_crypto.a(crypto_library.o)
 .debug_aranges
                0x0000000000000870       0x18 secure_fw/partitions/crypto/libtfm_psa_rot_partition_crypto.a(intermedia_tfm_crypto.o)
 .debug_aranges
                0x0000000000000888       0x28 platform/libplatform_crypto_keys.a(crypto_keys.o)
 .debug_aranges
                0x00000000000008b0       0x58 secure_fw/partitions/crypto/mbedcrypto/nrf_security_src/libcrypto_service_mbedcrypto.a(memory_buffer_alloc.o)
 .debug_aranges
                0x0000000000000908       0x58 secure_fw/partitions/crypto/mbedcrypto/nrf_security_src/libcrypto_service_mbedcrypto.a(platform.o)
 .debug_aranges
                0x0000000000000960      0x370 secure_fw/partitions/crypto/mbedcrypto/nrf_security_src/libcrypto_service_mbedcrypto.a(psa_crypto.o)
 .debug_aranges
                0x0000000000000cd0       0x80 secure_fw/partitions/crypto/mbedcrypto/nrf_security_src/libcrypto_service_mbedcrypto.a(psa_crypto_slot_management.o)
 .debug_aranges
                0x0000000000000d50      0x238 secure_fw/partitions/crypto/mbedcrypto/nrf_security_src/libcrypto_service_mbedcrypto.a(psa_crypto_driver_wrappers.o)
 .debug_aranges
                0x0000000000000f88       0x30 secure_fw/partitions/platform/libtfm_psa_rot_partition_platform.a(platform_sp.o)
 .debug_aranges
                0x0000000000000fb8       0x18 secure_fw/partitions/platform/libtfm_psa_rot_partition_platform.a(intermedia_tfm_platform.o)
 .debug_aranges
                0x0000000000000fd0       0x40 platform/libplatform_s.a(mpu_armv8m_drv.o)
 .debug_aranges
                0x0000000000001010       0xa8 platform/libplatform_s.a(spu.o)
 .debug_aranges
                0x00000000000010b8       0x20 platform/libplatform_s.a(tfm_hal_platform.o)
 .debug_aranges
                0x00000000000010d8       0x38 platform/libplatform_s.a(dummy_otp.o)
 .debug_aranges
                0x0000000000001110       0x30 platform/libplatform_s.a(dummy_provisioning.o)
 .debug_aranges
                0x0000000000001140       0x28 platform/libplatform_s.a(tfm_platform_system.o)
 .debug_aranges
                0x0000000000001168       0x28 platform/libplatform_s.a(tfm_hal_reset_halt.o)
 .debug_aranges
                0x0000000000001190       0x28 platform/libplatform_s.a(tfm_platform_hal_ioctl.o)
 .debug_aranges
                0x00000000000011b8       0x20 secure_fw/partitions/lib/runtime/libtfm_sprt.a(crt_memcpy.o)
 .debug_aranges
                0x00000000000011d8       0x20 secure_fw/partitions/lib/runtime/libtfm_sprt.a(sfn_common_thread.o)
 .debug_aranges
                0x00000000000011f8       0x78 secure_fw/partitions/lib/runtime/libtfm_sprt.a(psa_interface_cross.o)
 .debug_aranges
                0x0000000000001270       0x20 secure_fw/spm/libtfm_spm.a(psa_call_api.o)
 .debug_aranges
                0x0000000000001290       0x28 secure_fw/spm/libtfm_spm.a(psa_version_api.o)
 .debug_aranges
                0x00000000000012b8       0x30 secure_fw/spm/libtfm_spm.a(psa_read_write_skip_api.o)
 .debug_aranges
                0x00000000000012e8       0x38 secure_fw/partitions/crypto/libtfm_psa_rot_partition_crypto.a(tfm_builtin_key_loader.o)

.debug_ranges   0x0000000000000000     0x1b40
 .debug_ranges  0x0000000000000000       0x38 secure_fw/CMakeFiles/tfm_s.dir/partitions/ns_agent_tz/psa_api_veneers_v80m.o
 .debug_ranges  0x0000000000000038       0x98 secure_fw/CMakeFiles/tfm_s.dir/__/platform/ext/target/nordic_nrf/common/core/startup.o
 .debug_ranges  0x00000000000000d0       0x10 secure_fw/CMakeFiles/tfm_s.dir/__/platform/ext/target/nordic_nrf/common/core/startup_nrf5340.o
 .debug_ranges  0x00000000000000e0       0x58 secure_fw/CMakeFiles/tfm_s.dir/__/platform/ext/common/faults.o
 .debug_ranges  0x0000000000000138       0x30 platform/libplatform_s.a(system_nrf5340_application.o)
 .debug_ranges  0x0000000000000168       0x10 secure_fw/partitions/lib/runtime/libtfm_sprt.a(crt_memset.o)
 .debug_ranges  0x0000000000000178       0x60 secure_fw/partitions/lib/runtime/libtfm_sprt.a(psa_api_ipc.o)
 .debug_ranges  0x00000000000001d8       0x10 secure_fw/spm/libtfm_spm.a(utilities.o)
 .debug_ranges  0x00000000000001e8       0x40 secure_fw/spm/libtfm_spm.a(main.o)
 .debug_ranges  0x0000000000000228       0x18 secure_fw/spm/libtfm_spm.a(tfm_core_svcalls_ipc.o)
 .debug_ranges  0x0000000000000240       0x30 secure_fw/spm/libtfm_spm.a(tfm_arch_v8m_main.o)
 .debug_ranges  0x0000000000000270       0x10 secure_fw/spm/libtfm_spm.a(ns_agent_tz_v80m.o)
 .debug_ranges  0x0000000000000280       0xf0 secure_fw/spm/libtfm_spm.a(tfm_hal_isolation.o)
 .debug_ranges  0x0000000000000370       0x30 secure_fw/spm/libtfm_spm.a(faults.o)
 .debug_ranges  0x00000000000003a0       0xa8 secure_fw/spm/libtfm_spm.a(target_cfg.o)
 .debug_ranges  0x0000000000000448       0x18 secure_fw/spm/libtfm_spm.a(tfm_boot_data.o)
 .debug_ranges  0x0000000000000460       0x60 secure_fw/spm/libtfm_spm.a(tfm_arch.o)
 .debug_ranges  0x00000000000004c0       0xb8 secure_fw/spm/libtfm_spm.a(spm_ipc.o)
 .debug_ranges  0x0000000000000578       0x50 secure_fw/spm/libtfm_spm.a(spm_cross_call.o)
 .debug_ranges  0x00000000000005c8       0x20 secure_fw/spm/libtfm_spm.a(rom_loader.o)
 .debug_ranges  0x00000000000005e8       0x38 secure_fw/spm/libtfm_spm.a(psa_api.o)
 .debug_ranges  0x0000000000000620       0x88 secure_fw/spm/libtfm_spm.a(backend_ipc.o)
 .debug_ranges  0x00000000000006a8       0x28 secure_fw/spm/libtfm_spm.a(tfm_pools.o)
 .debug_ranges  0x00000000000006d0       0x58 secure_fw/spm/libtfm_spm.a(thread.o)
 .debug_ranges  0x0000000000000728       0x18 secure_fw/spm/libtfm_spm.a(tfm_spm_ns_ctx.o)
 .debug_ranges  0x0000000000000740       0x28 secure_fw/spm/libtfm_spm.a(tfm_hal_platform_common.o)
 .debug_ranges  0x0000000000000768      0x118 secure_fw/partitions/crypto/libtfm_psa_rot_partition_crypto.a(crypto_init.o)
 .debug_ranges  0x0000000000000880       0x28 secure_fw/partitions/crypto/libtfm_psa_rot_partition_crypto.a(crypto_alloc.o)
 .debug_ranges  0x00000000000008a8       0x10 secure_fw/partitions/crypto/libtfm_psa_rot_partition_crypto.a(crypto_cipher.o)
 .debug_ranges  0x00000000000008b8       0x10 secure_fw/partitions/crypto/libtfm_psa_rot_partition_crypto.a(crypto_hash.o)
 .debug_ranges  0x00000000000008c8       0x10 secure_fw/partitions/crypto/libtfm_psa_rot_partition_crypto.a(crypto_mac.o)
 .debug_ranges  0x00000000000008d8       0x10 secure_fw/partitions/crypto/libtfm_psa_rot_partition_crypto.a(crypto_aead.o)
 .debug_ranges  0x00000000000008e8       0x18 secure_fw/partitions/crypto/libtfm_psa_rot_partition_crypto.a(crypto_asymmetric.o)
 .debug_ranges  0x0000000000000900       0x10 secure_fw/partitions/crypto/libtfm_psa_rot_partition_crypto.a(crypto_key_derivation.o)
 .debug_ranges  0x0000000000000910       0x10 secure_fw/partitions/crypto/libtfm_psa_rot_partition_crypto.a(crypto_key_management.o)
 .debug_ranges  0x0000000000000920       0x10 secure_fw/partitions/crypto/libtfm_psa_rot_partition_crypto.a(crypto_rng.o)
 .debug_ranges  0x0000000000000930       0x70 secure_fw/partitions/crypto/libtfm_psa_rot_partition_crypto.a(crypto_library.o)
 .debug_ranges  0x00000000000009a0       0x18 platform/libplatform_crypto_keys.a(crypto_keys.o)
 .debug_ranges  0x00000000000009b8       0x60 secure_fw/partitions/crypto/mbedcrypto/nrf_security_src/libcrypto_service_mbedcrypto.a(memory_buffer_alloc.o)
 .debug_ranges  0x0000000000000a18       0x48 secure_fw/partitions/crypto/mbedcrypto/nrf_security_src/libcrypto_service_mbedcrypto.a(platform.o)
 .debug_ranges  0x0000000000000a60      0x6f8 secure_fw/partitions/crypto/mbedcrypto/nrf_security_src/libcrypto_service_mbedcrypto.a(psa_crypto.o)
 .debug_ranges  0x0000000000001158      0x158 secure_fw/partitions/crypto/mbedcrypto/nrf_security_src/libcrypto_service_mbedcrypto.a(psa_crypto_slot_management.o)
 .debug_ranges  0x00000000000012b0      0x228 secure_fw/partitions/crypto/mbedcrypto/nrf_security_src/libcrypto_service_mbedcrypto.a(psa_crypto_driver_wrappers.o)
 .debug_ranges  0x00000000000014d8       0x20 secure_fw/partitions/platform/libtfm_psa_rot_partition_platform.a(platform_sp.o)
 .debug_ranges  0x00000000000014f8       0x50 platform/libplatform_s.a(mpu_armv8m_drv.o)
 .debug_ranges  0x0000000000001548      0x1a0 platform/libplatform_s.a(spu.o)
 .debug_ranges  0x00000000000016e8       0x28 platform/libplatform_s.a(tfm_hal_platform.o)
 .debug_ranges  0x0000000000001710       0x28 platform/libplatform_s.a(dummy_otp.o)
 .debug_ranges  0x0000000000001738       0x20 platform/libplatform_s.a(dummy_provisioning.o)
 .debug_ranges  0x0000000000001758       0x18 platform/libplatform_s.a(tfm_platform_system.o)
 .debug_ranges  0x0000000000001770       0x18 platform/libplatform_s.a(tfm_hal_reset_halt.o)
 .debug_ranges  0x0000000000001788       0x90 platform/libplatform_s.a(tfm_platform_hal_ioctl.o)
 .debug_ranges  0x0000000000001818       0x10 secure_fw/partitions/lib/runtime/libtfm_sprt.a(crt_memcpy.o)
 .debug_ranges  0x0000000000001828       0x38 secure_fw/partitions/lib/runtime/libtfm_sprt.a(sfn_common_thread.o)
 .debug_ranges  0x0000000000001860       0x68 secure_fw/partitions/lib/runtime/libtfm_sprt.a(psa_interface_cross.o)
 .debug_ranges  0x00000000000018c8       0x10 secure_fw/spm/libtfm_spm.a(psa_call_api.o)
 .debug_ranges  0x00000000000018d8       0x18 secure_fw/spm/libtfm_spm.a(psa_version_api.o)
 .debug_ranges  0x00000000000018f0       0x20 secure_fw/spm/libtfm_spm.a(psa_read_write_skip_api.o)
 .debug_ranges  0x0000000000001910      0x230 secure_fw/partitions/crypto/libtfm_psa_rot_partition_crypto.a(tfm_builtin_key_loader.o)

.debug_line     0x0000000000000000    0x1661c
 .debug_line    0x0000000000000000      0x2e6 secure_fw/CMakeFiles/tfm_s.dir/partitions/ns_agent_tz/psa_api_veneers_v80m.o
 .debug_line    0x00000000000002e6      0x3ba secure_fw/CMakeFiles/tfm_s.dir/__/platform/ext/target/nordic_nrf/common/core/startup.o
 .debug_line    0x00000000000006a0      0x204 secure_fw/CMakeFiles/tfm_s.dir/__/platform/ext/target/nordic_nrf/common/core/startup_nrf5340.o
 .debug_line    0x00000000000008a4      0x1b3 secure_fw/CMakeFiles/tfm_s.dir/__/platform/ext/common/faults.o
 .debug_line    0x0000000000000a57      0x3d5 secure_fw/CMakeFiles/tfm_s.dir/__/generated/secure_fw/partitions/crypto/auto_generated/load_info_tfm_crypto.o
 .debug_line    0x0000000000000e2c      0x3dd secure_fw/CMakeFiles/tfm_s.dir/__/generated/secure_fw/partitions/platform/auto_generated/load_info_tfm_platform.o
 .debug_line    0x0000000000001209      0x3b0 secure_fw/CMakeFiles/tfm_s.dir/partitions/ns_agent_tz/load_info_ns_agent_tz.o
 .debug_line    0x00000000000015b9      0x5e7 platform/libplatform_s.a(system_nrf5340_application.o)
 .debug_line    0x0000000000001ba0      0x2c8 secure_fw/partitions/lib/runtime/libtfm_sprt.a(crt_memset.o)
 .debug_line    0x0000000000001e68      0x46f secure_fw/partitions/lib/runtime/libtfm_sprt.a(psa_api_ipc.o)
 .debug_line    0x00000000000022d7      0x192 secure_fw/partitions/lib/runtime/libtfm_sprt.a(sprt_partition_metadata_indicator.o)
 .debug_line    0x0000000000002469       0xf8 secure_fw/spm/libtfm_spm.a(utilities.o)
 .debug_line    0x0000000000002561      0x513 secure_fw/spm/libtfm_spm.a(main.o)
 .debug_line    0x0000000000002a74      0x415 secure_fw/spm/libtfm_spm.a(tfm_core_svcalls_ipc.o)
 .debug_line    0x0000000000002e89      0x35c secure_fw/spm/libtfm_spm.a(tfm_arch_v8m_main.o)
 .debug_line    0x00000000000031e5      0x19c secure_fw/spm/libtfm_spm.a(ns_agent_tz_v80m.o)
 .debug_line    0x0000000000003381      0xa4b secure_fw/spm/libtfm_spm.a(tfm_hal_isolation.o)
 .debug_line    0x0000000000003dcc      0x394 secure_fw/spm/libtfm_spm.a(faults.o)
 .debug_line    0x0000000000004160      0x7a1 secure_fw/spm/libtfm_spm.a(target_cfg.o)
 .debug_line    0x0000000000004901      0x5bc secure_fw/spm/libtfm_spm.a(tfm_boot_data.o)
 .debug_line    0x0000000000004ebd      0x499 secure_fw/spm/libtfm_spm.a(tfm_arch.o)
 .debug_line    0x0000000000005356      0xa6c secure_fw/spm/libtfm_spm.a(spm_ipc.o)
 .debug_line    0x0000000000005dc2      0x56c secure_fw/spm/libtfm_spm.a(spm_cross_call.o)
 .debug_line    0x000000000000632e      0x5ac secure_fw/spm/libtfm_spm.a(rom_loader.o)
 .debug_line    0x00000000000068da      0x81c secure_fw/spm/libtfm_spm.a(psa_api.o)
 .debug_line    0x00000000000070f6      0xaf0 secure_fw/spm/libtfm_spm.a(backend_ipc.o)
 .debug_line    0x0000000000007be6      0x435 secure_fw/spm/libtfm_spm.a(tfm_pools.o)
 .debug_line    0x000000000000801b      0x36c secure_fw/spm/libtfm_spm.a(thread.o)
 .debug_line    0x0000000000008387      0x29d secure_fw/spm/libtfm_spm.a(tfm_spm_ns_ctx.o)
 .debug_line    0x0000000000008624      0x3b7 secure_fw/spm/libtfm_spm.a(tfm_hal_platform_common.o)
 .debug_line    0x00000000000089db      0x7cc secure_fw/partitions/crypto/libtfm_psa_rot_partition_crypto.a(crypto_init.o)
 .debug_line    0x00000000000091a7      0x5ca secure_fw/partitions/crypto/libtfm_psa_rot_partition_crypto.a(crypto_alloc.o)
 .debug_line    0x0000000000009771      0x2cf secure_fw/partitions/crypto/libtfm_psa_rot_partition_crypto.a(crypto_cipher.o)
 .debug_line    0x0000000000009a40      0x2b8 secure_fw/partitions/crypto/libtfm_psa_rot_partition_crypto.a(crypto_hash.o)
 .debug_line    0x0000000000009cf8      0x2cc secure_fw/partitions/crypto/libtfm_psa_rot_partition_crypto.a(crypto_mac.o)
 .debug_line    0x0000000000009fc4      0x2cd secure_fw/partitions/crypto/libtfm_psa_rot_partition_crypto.a(crypto_aead.o)
 .debug_line    0x000000000000a291      0x2e5 secure_fw/partitions/crypto/libtfm_psa_rot_partition_crypto.a(crypto_asymmetric.o)
 .debug_line    0x000000000000a576      0x2d7 secure_fw/partitions/crypto/libtfm_psa_rot_partition_crypto.a(crypto_key_derivation.o)
 .debug_line    0x000000000000a84d      0x2d7 secure_fw/partitions/crypto/libtfm_psa_rot_partition_crypto.a(crypto_key_management.o)
 .debug_line    0x000000000000ab24      0x2c1 secure_fw/partitions/crypto/libtfm_psa_rot_partition_crypto.a(crypto_rng.o)
 .debug_line    0x000000000000ade5      0x653 secure_fw/partitions/crypto/libtfm_psa_rot_partition_crypto.a(crypto_library.o)
 .debug_line    0x000000000000b438      0x15e secure_fw/partitions/crypto/libtfm_psa_rot_partition_crypto.a(intermedia_tfm_crypto.o)
 .debug_line    0x000000000000b596      0x2da platform/libplatform_crypto_keys.a(crypto_keys.o)
 .debug_line    0x000000000000b870      0x740 secure_fw/partitions/crypto/mbedcrypto/nrf_security_src/libcrypto_service_mbedcrypto.a(memory_buffer_alloc.o)
 .debug_line    0x000000000000bfb0      0x282 secure_fw/partitions/crypto/mbedcrypto/nrf_security_src/libcrypto_service_mbedcrypto.a(platform.o)
 .debug_line    0x000000000000c232     0x3c3c secure_fw/partitions/crypto/mbedcrypto/nrf_security_src/libcrypto_service_mbedcrypto.a(psa_crypto.o)
 .debug_line    0x000000000000fe6e      0xb56 secure_fw/partitions/crypto/mbedcrypto/nrf_security_src/libcrypto_service_mbedcrypto.a(psa_crypto_slot_management.o)
 .debug_line    0x00000000000109c4      0xd0d secure_fw/partitions/crypto/mbedcrypto/nrf_security_src/libcrypto_service_mbedcrypto.a(psa_crypto_driver_wrappers.o)
 .debug_line    0x00000000000116d1      0x50f secure_fw/partitions/platform/libtfm_psa_rot_partition_platform.a(platform_sp.o)
 .debug_line    0x0000000000011be0      0x162 secure_fw/partitions/platform/libtfm_psa_rot_partition_platform.a(intermedia_tfm_platform.o)
 .debug_line    0x0000000000011d42      0x453 platform/libplatform_s.a(mpu_armv8m_drv.o)
 .debug_line    0x0000000000012195      0x7d8 platform/libplatform_s.a(spu.o)
 .debug_line    0x000000000001296d      0x37f platform/libplatform_s.a(tfm_hal_platform.o)
 .debug_line    0x0000000000012cec      0x2cb platform/libplatform_s.a(dummy_otp.o)
 .debug_line    0x0000000000012fb7      0x113 platform/libplatform_s.a(dummy_provisioning.o)
 .debug_line    0x00000000000130ca      0x446 platform/libplatform_s.a(tfm_platform_system.o)
 .debug_line    0x0000000000013510      0x27c platform/libplatform_s.a(tfm_hal_reset_halt.o)
 .debug_line    0x000000000001378c      0x739 platform/libplatform_s.a(tfm_platform_hal_ioctl.o)
 .debug_line    0x0000000000013ec5      0x2c7 secure_fw/partitions/lib/runtime/libtfm_sprt.a(crt_memcpy.o)
 .debug_line    0x000000000001418c      0x3cf secure_fw/partitions/lib/runtime/libtfm_sprt.a(sfn_common_thread.o)
 .debug_line    0x000000000001455b      0x3bb secure_fw/partitions/lib/runtime/libtfm_sprt.a(psa_interface_cross.o)
 .debug_line    0x0000000000014916      0x7e6 secure_fw/spm/libtfm_spm.a(psa_call_api.o)
 .debug_line    0x00000000000150fc      0x408 secure_fw/spm/libtfm_spm.a(psa_version_api.o)
 .debug_line    0x0000000000015504      0x66b secure_fw/spm/libtfm_spm.a(psa_read_write_skip_api.o)
 .debug_line    0x0000000000015b6f      0xaad secure_fw/partitions/crypto/libtfm_psa_rot_partition_crypto.a(tfm_builtin_key_loader.o)

.debug_str      0x0000000000000000     0xaeb9
 .debug_str     0x0000000000000000      0x305 secure_fw/CMakeFiles/tfm_s.dir/partitions/ns_agent_tz/psa_api_veneers_v80m.o
                                        0x36a (size before relaxing)
 .debug_str     0x0000000000000305      0x360 secure_fw/CMakeFiles/tfm_s.dir/__/platform/ext/target/nordic_nrf/common/core/startup.o
                                        0x568 (size before relaxing)
 .debug_str     0x0000000000000665       0x9f secure_fw/CMakeFiles/tfm_s.dir/__/platform/ext/target/nordic_nrf/common/core/startup_nrf5340.o
                                        0x32b (size before relaxing)
 .debug_str     0x0000000000000704       0xbf secure_fw/CMakeFiles/tfm_s.dir/__/platform/ext/common/faults.o
                                        0x301 (size before relaxing)
 .debug_str     0x00000000000007c3      0x2c4 secure_fw/CMakeFiles/tfm_s.dir/__/generated/secure_fw/partitions/crypto/auto_generated/load_info_tfm_crypto.o
                                        0x5b8 (size before relaxing)
 .debug_str     0x0000000000000a87      0x117 secure_fw/CMakeFiles/tfm_s.dir/__/generated/secure_fw/partitions/platform/auto_generated/load_info_tfm_platform.o
                                        0x5cc (size before relaxing)
 .debug_str     0x0000000000000b9e      0x103 secure_fw/CMakeFiles/tfm_s.dir/partitions/ns_agent_tz/load_info_ns_agent_tz.o
                                        0x5a2 (size before relaxing)
 .debug_str     0x0000000000000ca1      0xae2 platform/libplatform_s.a(system_nrf5340_application.o)
                                        0xdb4 (size before relaxing)
 .debug_str     0x0000000000001783       0x96 secure_fw/partitions/lib/runtime/libtfm_sprt.a(crt_memset.o)
                                        0x2b2 (size before relaxing)
 .debug_str     0x0000000000001819      0x124 secure_fw/partitions/lib/runtime/libtfm_sprt.a(psa_api_ipc.o)
                                        0x456 (size before relaxing)
 .debug_str     0x000000000000193d       0x81 secure_fw/partitions/lib/runtime/libtfm_sprt.a(sprt_partition_metadata_indicator.o)
                                        0x27e (size before relaxing)
 .debug_str     0x00000000000019be       0x6f secure_fw/spm/libtfm_spm.a(utilities.o)
                                        0x255 (size before relaxing)
 .debug_str     0x0000000000001a2d      0x49e secure_fw/spm/libtfm_spm.a(main.o)
                                        0x717 (size before relaxing)
 .debug_str     0x0000000000001ecb      0x158 secure_fw/spm/libtfm_spm.a(tfm_core_svcalls_ipc.o)
                                        0x3bf (size before relaxing)
 .debug_str     0x0000000000002023      0x3a2 secure_fw/spm/libtfm_spm.a(tfm_arch_v8m_main.o)
                                        0x759 (size before relaxing)
 .debug_str     0x00000000000023c5       0x78 secure_fw/spm/libtfm_spm.a(ns_agent_tz_v80m.o)
                                        0x274 (size before relaxing)
 .debug_str     0x000000000000243d      0x932 secure_fw/spm/libtfm_spm.a(tfm_hal_isolation.o)
                                        0xdf4 (size before relaxing)
 .debug_str     0x0000000000002d6f       0xb5 secure_fw/spm/libtfm_spm.a(faults.o)
                                        0x799 (size before relaxing)
 .debug_str     0x0000000000002e24     0x1af8 secure_fw/spm/libtfm_spm.a(target_cfg.o)
                                       0x2a13 (size before relaxing)
 .debug_str     0x000000000000491c      0x160 secure_fw/spm/libtfm_spm.a(tfm_boot_data.o)
                                        0x886 (size before relaxing)
 .debug_str     0x0000000000004a7c      0x1aa secure_fw/spm/libtfm_spm.a(tfm_arch.o)
                                        0x494 (size before relaxing)
 .debug_str     0x0000000000004c26      0x415 secure_fw/spm/libtfm_spm.a(spm_ipc.o)
                                        0xa4a (size before relaxing)
 .debug_str     0x000000000000503b      0x117 secure_fw/spm/libtfm_spm.a(spm_cross_call.o)
                                        0x657 (size before relaxing)
 .debug_str     0x0000000000005152      0x223 secure_fw/spm/libtfm_spm.a(rom_loader.o)
                                        0x76d (size before relaxing)
 .debug_str     0x0000000000005375      0x10e secure_fw/spm/libtfm_spm.a(psa_api.o)
                                        0x7bc (size before relaxing)
 .debug_str     0x0000000000005483      0x251 secure_fw/spm/libtfm_spm.a(backend_ipc.o)
                                        0xa23 (size before relaxing)
 .debug_str     0x00000000000056d4       0x8e secure_fw/spm/libtfm_spm.a(tfm_pools.o)
                                        0x352 (size before relaxing)
 .debug_str     0x0000000000005762       0xba secure_fw/spm/libtfm_spm.a(thread.o)
                                        0x40f (size before relaxing)
 .debug_str     0x000000000000581c       0xaf secure_fw/spm/libtfm_spm.a(tfm_spm_ns_ctx.o)
                                        0x41b (size before relaxing)
 .debug_str     0x00000000000058cb       0xab secure_fw/spm/libtfm_spm.a(tfm_hal_platform_common.o)
                                        0x558 (size before relaxing)
 .debug_str     0x0000000000005976      0xd30 secure_fw/partitions/crypto/libtfm_psa_rot_partition_crypto.a(crypto_init.o)
                                       0x1058 (size before relaxing)
 .debug_str     0x00000000000066a6      0x573 secure_fw/partitions/crypto/libtfm_psa_rot_partition_crypto.a(crypto_alloc.o)
                                       0x113a (size before relaxing)
 .debug_str     0x0000000000006c19       0x68 secure_fw/partitions/crypto/libtfm_psa_rot_partition_crypto.a(crypto_cipher.o)
                                        0x2f3 (size before relaxing)
 .debug_str     0x0000000000006c81       0x66 secure_fw/partitions/crypto/libtfm_psa_rot_partition_crypto.a(crypto_hash.o)
                                        0x2a1 (size before relaxing)
 .debug_str     0x0000000000006ce7       0x65 secure_fw/partitions/crypto/libtfm_psa_rot_partition_crypto.a(crypto_mac.o)
                                        0x2ed (size before relaxing)
 .debug_str     0x0000000000006d4c       0x66 secure_fw/partitions/crypto/libtfm_psa_rot_partition_crypto.a(crypto_aead.o)
                                        0x2ef (size before relaxing)
 .debug_str     0x0000000000006db2       0x6c secure_fw/partitions/crypto/libtfm_psa_rot_partition_crypto.a(crypto_asymmetric.o)
                                        0x328 (size before relaxing)
 .debug_str     0x0000000000006e1e       0x70 secure_fw/partitions/crypto/libtfm_psa_rot_partition_crypto.a(crypto_key_derivation.o)
                                        0x308 (size before relaxing)
 .debug_str     0x0000000000006e8e       0x70 secure_fw/partitions/crypto/libtfm_psa_rot_partition_crypto.a(crypto_key_management.o)
                                        0x303 (size before relaxing)
 .debug_str     0x0000000000006efe       0x91 secure_fw/partitions/crypto/libtfm_psa_rot_partition_crypto.a(crypto_rng.o)
                                        0x2e7 (size before relaxing)
 .debug_str     0x0000000000006f8f      0x3ed secure_fw/partitions/crypto/libtfm_psa_rot_partition_crypto.a(crypto_library.o)
                                        0x7d5 (size before relaxing)
 .debug_str     0x000000000000737c       0x4d secure_fw/partitions/crypto/libtfm_psa_rot_partition_crypto.a(intermedia_tfm_crypto.o)
                                        0x245 (size before relaxing)
 .debug_str     0x00000000000073c9       0xe7 platform/libplatform_crypto_keys.a(crypto_keys.o)
                                        0x4d8 (size before relaxing)
 .debug_str     0x00000000000074b0      0x185 secure_fw/partitions/crypto/mbedcrypto/nrf_security_src/libcrypto_service_mbedcrypto.a(memory_buffer_alloc.o)
                                        0x3c7 (size before relaxing)
 .debug_str     0x0000000000007635      0x138 secure_fw/partitions/crypto/mbedcrypto/nrf_security_src/libcrypto_service_mbedcrypto.a(platform.o)
                                        0x35f (size before relaxing)
 .debug_str     0x000000000000776d     0x1f25 secure_fw/partitions/crypto/mbedcrypto/nrf_security_src/libcrypto_service_mbedcrypto.a(psa_crypto.o)
                                       0x3019 (size before relaxing)
 .debug_str     0x0000000000009692      0x33c secure_fw/partitions/crypto/mbedcrypto/nrf_security_src/libcrypto_service_mbedcrypto.a(psa_crypto_slot_management.o)
                                        0x9ca (size before relaxing)
 .debug_str     0x00000000000099ce      0x23f secure_fw/partitions/crypto/mbedcrypto/nrf_security_src/libcrypto_service_mbedcrypto.a(psa_crypto_driver_wrappers.o)
                                       0x1548 (size before relaxing)
 .debug_str     0x0000000000009c0d      0x1e0 secure_fw/partitions/platform/libtfm_psa_rot_partition_platform.a(platform_sp.o)
                                        0x4d4 (size before relaxing)
 .debug_str     0x0000000000009ded       0x51 secure_fw/partitions/platform/libtfm_psa_rot_partition_platform.a(intermedia_tfm_platform.o)
                                        0x24b (size before relaxing)
 .debug_str     0x0000000000009e3e      0x155 platform/libplatform_s.a(mpu_armv8m_drv.o)
                                        0x584 (size before relaxing)
 .debug_str     0x0000000000009f93      0x397 platform/libplatform_s.a(spu.o)
                                        0xa7c (size before relaxing)
 .debug_str     0x000000000000a32a       0x90 platform/libplatform_s.a(tfm_hal_platform.o)
                                        0x4d7 (size before relaxing)
 .debug_str     0x000000000000a3ba       0xa6 platform/libplatform_s.a(dummy_otp.o)
                                        0x375 (size before relaxing)
 .debug_str     0x000000000000a460       0x4f platform/libplatform_s.a(dummy_provisioning.o)
                                        0x34a (size before relaxing)
 .debug_str     0x000000000000a4af      0x120 platform/libplatform_s.a(tfm_platform_system.o)
                                        0x58f (size before relaxing)
 .debug_str     0x000000000000a5cf       0x79 platform/libplatform_s.a(tfm_hal_reset_halt.o)
                                        0x3d9 (size before relaxing)
 .debug_str     0x000000000000a648      0x1b1 platform/libplatform_s.a(tfm_platform_hal_ioctl.o)
                                        0x74b (size before relaxing)
 .debug_str     0x000000000000a7f9       0x66 secure_fw/partitions/lib/runtime/libtfm_sprt.a(crt_memcpy.o)
                                        0x2b0 (size before relaxing)
 .debug_str     0x000000000000a85f       0x95 secure_fw/partitions/lib/runtime/libtfm_sprt.a(sfn_common_thread.o)
                                        0x436 (size before relaxing)
 .debug_str     0x000000000000a8f4      0x15b secure_fw/partitions/lib/runtime/libtfm_sprt.a(psa_interface_cross.o)
                                        0x4de (size before relaxing)
 .debug_str     0x000000000000aa4f       0xaa secure_fw/spm/libtfm_spm.a(psa_call_api.o)
                                        0x79c (size before relaxing)
 .debug_str     0x000000000000aaf9       0xa0 secure_fw/spm/libtfm_spm.a(psa_version_api.o)
                                        0x589 (size before relaxing)
 .debug_str     0x000000000000ab99       0xba secure_fw/spm/libtfm_spm.a(psa_read_write_skip_api.o)
                                        0x697 (size before relaxing)
 .debug_str     0x000000000000ac53      0x266 secure_fw/partitions/crypto/libtfm_psa_rot_partition_crypto.a(tfm_builtin_key_loader.o)
                                        0xcb6 (size before relaxing)

.debug_frame    0x0000000000000000     0x2b64
 .debug_frame   0x0000000000000000       0x70 secure_fw/CMakeFiles/tfm_s.dir/partitions/ns_agent_tz/psa_api_veneers_v80m.o
 .debug_frame   0x0000000000000070       0x38 secure_fw/CMakeFiles/tfm_s.dir/__/platform/ext/target/nordic_nrf/common/core/startup.o
 .debug_frame   0x00000000000000a8       0x20 secure_fw/CMakeFiles/tfm_s.dir/__/platform/ext/target/nordic_nrf/common/core/startup_nrf5340.o
 .debug_frame   0x00000000000000c8       0xb0 secure_fw/CMakeFiles/tfm_s.dir/__/platform/ext/common/faults.o
 .debug_frame   0x0000000000000178       0x68 platform/libplatform_s.a(system_nrf5340_application.o)
 .debug_frame   0x00000000000001e0       0x30 secure_fw/partitions/lib/runtime/libtfm_sprt.a(crt_memset.o)
 .debug_frame   0x0000000000000210       0xe4 secure_fw/partitions/lib/runtime/libtfm_sprt.a(psa_api_ipc.o)
 .debug_frame   0x00000000000002f4       0x20 secure_fw/spm/libtfm_spm.a(utilities.o)
 .debug_frame   0x0000000000000314       0x28 secure_fw/spm/libtfm_spm.a(main.o)
 .debug_frame   0x000000000000033c       0x40 secure_fw/spm/libtfm_spm.a(tfm_core_svcalls_ipc.o)
 .debug_frame   0x000000000000037c       0x60 secure_fw/spm/libtfm_spm.a(tfm_arch_v8m_main.o)
 .debug_frame   0x00000000000003dc       0x20 secure_fw/spm/libtfm_spm.a(ns_agent_tz_v80m.o)
 .debug_frame   0x00000000000003fc       0xb0 secure_fw/spm/libtfm_spm.a(tfm_hal_isolation.o)
 .debug_frame   0x00000000000004ac       0x3c secure_fw/spm/libtfm_spm.a(faults.o)
 .debug_frame   0x00000000000004e8       0xdc secure_fw/spm/libtfm_spm.a(target_cfg.o)
 .debug_frame   0x00000000000005c4       0x38 secure_fw/spm/libtfm_spm.a(tfm_boot_data.o)
 .debug_frame   0x00000000000005fc       0x74 secure_fw/spm/libtfm_spm.a(tfm_arch.o)
 .debug_frame   0x0000000000000670      0x1a0 secure_fw/spm/libtfm_spm.a(spm_ipc.o)
 .debug_frame   0x0000000000000810       0x70 secure_fw/spm/libtfm_spm.a(spm_cross_call.o)
 .debug_frame   0x0000000000000880       0x70 secure_fw/spm/libtfm_spm.a(rom_loader.o)
 .debug_frame   0x00000000000008f0       0xb4 secure_fw/spm/libtfm_spm.a(psa_api.o)
 .debug_frame   0x00000000000009a4      0x100 secure_fw/spm/libtfm_spm.a(backend_ipc.o)
 .debug_frame   0x0000000000000aa4       0x64 secure_fw/spm/libtfm_spm.a(tfm_pools.o)
 .debug_frame   0x0000000000000b08       0xa0 secure_fw/spm/libtfm_spm.a(thread.o)
 .debug_frame   0x0000000000000ba8       0x38 secure_fw/spm/libtfm_spm.a(tfm_spm_ns_ctx.o)
 .debug_frame   0x0000000000000be0       0x58 secure_fw/spm/libtfm_spm.a(tfm_hal_platform_common.o)
 .debug_frame   0x0000000000000c38       0xac secure_fw/partitions/crypto/libtfm_psa_rot_partition_crypto.a(crypto_init.o)
 .debug_frame   0x0000000000000ce4       0x8c secure_fw/partitions/crypto/libtfm_psa_rot_partition_crypto.a(crypto_alloc.o)
 .debug_frame   0x0000000000000d70       0x20 secure_fw/partitions/crypto/libtfm_psa_rot_partition_crypto.a(crypto_cipher.o)
 .debug_frame   0x0000000000000d90       0x20 secure_fw/partitions/crypto/libtfm_psa_rot_partition_crypto.a(crypto_hash.o)
 .debug_frame   0x0000000000000db0       0x20 secure_fw/partitions/crypto/libtfm_psa_rot_partition_crypto.a(crypto_mac.o)
 .debug_frame   0x0000000000000dd0       0x20 secure_fw/partitions/crypto/libtfm_psa_rot_partition_crypto.a(crypto_aead.o)
 .debug_frame   0x0000000000000df0       0x30 secure_fw/partitions/crypto/libtfm_psa_rot_partition_crypto.a(crypto_asymmetric.o)
 .debug_frame   0x0000000000000e20       0x20 secure_fw/partitions/crypto/libtfm_psa_rot_partition_crypto.a(crypto_key_derivation.o)
 .debug_frame   0x0000000000000e40       0x20 secure_fw/partitions/crypto/libtfm_psa_rot_partition_crypto.a(crypto_key_management.o)
 .debug_frame   0x0000000000000e60       0x20 secure_fw/partitions/crypto/libtfm_psa_rot_partition_crypto.a(crypto_rng.o)
 .debug_frame   0x0000000000000e80       0xbc secure_fw/partitions/crypto/libtfm_psa_rot_partition_crypto.a(crypto_library.o)
 .debug_frame   0x0000000000000f3c       0x30 platform/libplatform_crypto_keys.a(crypto_keys.o)
 .debug_frame   0x0000000000000f6c       0xc8 secure_fw/partitions/crypto/mbedcrypto/nrf_security_src/libcrypto_service_mbedcrypto.a(memory_buffer_alloc.o)
 .debug_frame   0x0000000000001034       0x90 secure_fw/partitions/crypto/mbedcrypto/nrf_security_src/libcrypto_service_mbedcrypto.a(platform.o)
 .debug_frame   0x00000000000010c4      0xd2c secure_fw/partitions/crypto/mbedcrypto/nrf_security_src/libcrypto_service_mbedcrypto.a(psa_crypto.o)
 .debug_frame   0x0000000000001df0      0x19c secure_fw/partitions/crypto/mbedcrypto/nrf_security_src/libcrypto_service_mbedcrypto.a(psa_crypto_slot_management.o)
 .debug_frame   0x0000000000001f8c      0x4f0 secure_fw/partitions/crypto/mbedcrypto/nrf_security_src/libcrypto_service_mbedcrypto.a(psa_crypto_driver_wrappers.o)
 .debug_frame   0x000000000000247c       0x60 secure_fw/partitions/platform/libtfm_psa_rot_partition_platform.a(platform_sp.o)
 .debug_frame   0x00000000000024dc       0x78 platform/libplatform_s.a(mpu_armv8m_drv.o)
 .debug_frame   0x0000000000002554      0x140 platform/libplatform_s.a(spu.o)
 .debug_frame   0x0000000000002694       0x28 platform/libplatform_s.a(tfm_hal_platform.o)
 .debug_frame   0x00000000000026bc       0x50 platform/libplatform_s.a(dummy_otp.o)
 .debug_frame   0x000000000000270c       0x40 platform/libplatform_s.a(dummy_provisioning.o)
 .debug_frame   0x000000000000274c       0x30 platform/libplatform_s.a(tfm_platform_system.o)
 .debug_frame   0x000000000000277c       0x30 platform/libplatform_s.a(tfm_hal_reset_halt.o)
 .debug_frame   0x00000000000027ac       0x4c platform/libplatform_s.a(tfm_platform_hal_ioctl.o)
 .debug_frame   0x00000000000027f8       0x2c secure_fw/partitions/lib/runtime/libtfm_sprt.a(crt_memcpy.o)
 .debug_frame   0x0000000000002824       0x38 secure_fw/partitions/lib/runtime/libtfm_sprt.a(sfn_common_thread.o)
 .debug_frame   0x000000000000285c       0xd0 secure_fw/partitions/lib/runtime/libtfm_sprt.a(psa_interface_cross.o)
 .debug_frame   0x000000000000292c       0x40 secure_fw/spm/libtfm_spm.a(psa_call_api.o)
 .debug_frame   0x000000000000296c       0x3c secure_fw/spm/libtfm_spm.a(psa_version_api.o)
 .debug_frame   0x00000000000029a8       0x74 secure_fw/spm/libtfm_spm.a(psa_read_write_skip_api.o)
 .debug_frame   0x0000000000002a1c       0xa4 secure_fw/partitions/crypto/libtfm_psa_rot_partition_crypto.a(tfm_builtin_key_loader.o)
 .debug_frame   0x0000000000002ac0       0x28 /home/jordan/ncs/toolchains/7795df4459/opt/zephyr-sdk/arm-zephyr-eabi/bin/../lib/gcc/arm-zephyr-eabi/12.2.0/thumb/v8-m.main/nofp/libgcc.a(cmse.o)
 .debug_frame   0x0000000000002ae8       0x28 /home/jordan/ncs/toolchains/7795df4459/opt/zephyr-sdk/arm-zephyr-eabi/bin/../lib/gcc/arm-zephyr-eabi/12.2.0/../../../../arm-zephyr-eabi/lib/thumb/v8-m.main/nofp/libc_nano.a(lib_a-exit.o)
 .debug_frame   0x0000000000002b10       0x2c /home/jordan/ncs/toolchains/7795df4459/opt/zephyr-sdk/arm-zephyr-eabi/bin/../lib/gcc/arm-zephyr-eabi/12.2.0/../../../../arm-zephyr-eabi/lib/thumb/v8-m.main/nofp/libc_nano.a(lib_a-init.o)
 .debug_frame   0x0000000000002b3c       0x28 /home/jordan/ncs/toolchains/7795df4459/opt/zephyr-sdk/arm-zephyr-eabi/bin/../lib/gcc/arm-zephyr-eabi/12.2.0/../../../../arm-zephyr-eabi/lib/thumb/v8-m.main/nofp/libc_nano.a(lib_a-memmove.o)
